	.arch armv8-a
	.file	"main.cpp"
	.text
.Ltext0:
	.file 0 "/home/user/out" "main.cpp"
	.align	2
	.type	_ZL12get_log_pathv, %function
_ZL12get_log_pathv:
.LFB3692:
	.file 1 "main.cpp"
	.loc 1 41 35 view -0
	.cfi_startproc
	stp	x29, x30, [sp, -32]!
	.cfi_def_cfa_offset 32
	.cfi_offset 29, -32
	.cfi_offset 30, -24
	mov	x29, sp
	str	x19, [sp, 16]
	.cfi_offset 19, -16
	mov	x19, x8
	.loc 1 42 5 view .LVU1
	.loc 1 42 12 is_stmt 0 view .LVU2
	adrp	x1, .LANCHOR0
	add	x1, x1, :lo12:.LANCHOR0
	mov	x0, x8
	bl	_ZNSt7__cxx1112basic_stringIcSt11char_traitsIcESaIcEEC1ERKS4_
.LVL0:
	.loc 1 43 1 view .LVU3
	mov	x0, x19
	ldr	x19, [sp, 16]
	ldp	x29, x30, [sp], 32
	.cfi_restore 30
	.cfi_restore 29
	.cfi_restore 19
	.cfi_def_cfa_offset 0
	ret
	.cfi_endproc
.LFE3692:
	.size	_ZL12get_log_pathv, .-_ZL12get_log_pathv
	.align	2
	.global	_Z15register_signalv
	.type	_Z15register_signalv, %function
_Z15register_signalv:
.LFB3695:
	.loc 1 95 23 is_stmt 1 view -0
	.cfi_startproc
	stp	x29, x30, [sp, -32]!
	.cfi_def_cfa_offset 32
	.cfi_offset 29, -32
	.cfi_offset 30, -24
	mov	x29, sp
	str	x19, [sp, 16]
	.cfi_offset 19, -16
	.loc 1 96 5 view .LVU5
	.loc 1 96 11 is_stmt 0 view .LVU6
	adrp	x19, _ZL9sighandlei
	add	x19, x19, :lo12:_ZL9sighandlei
	mov	x1, x19
	mov	w0, 6
	bl	signal
.LVL1:
	.loc 1 97 5 is_stmt 1 view .LVU7
	.loc 1 97 11 is_stmt 0 view .LVU8
	mov	x1, x19
	mov	w0, 7
	bl	signal
.LVL2:
	.loc 1 98 5 is_stmt 1 view .LVU9
	.loc 1 98 11 is_stmt 0 view .LVU10
	mov	x1, x19
	mov	w0, 8
	bl	signal
.LVL3:
	.loc 1 99 5 is_stmt 1 view .LVU11
	.loc 1 99 11 is_stmt 0 view .LVU12
	mov	x1, x19
	mov	w0, 4
	bl	signal
.LVL4:
	.loc 1 100 5 is_stmt 1 view .LVU13
	.loc 1 100 11 is_stmt 0 view .LVU14
	mov	x1, x19
	mov	w0, 3
	bl	signal
.LVL5:
	.loc 1 101 5 is_stmt 1 view .LVU15
	.loc 1 101 11 is_stmt 0 view .LVU16
	mov	x1, x19
	mov	w0, 11
	bl	signal
.LVL6:
	.loc 1 102 5 is_stmt 1 view .LVU17
	.loc 1 102 11 is_stmt 0 view .LVU18
	mov	x1, x19
	mov	w0, 31
	bl	signal
.LVL7:
	.loc 1 103 5 is_stmt 1 view .LVU19
	.loc 1 103 11 is_stmt 0 view .LVU20
	mov	x1, x19
	mov	w0, 5
	bl	signal
.LVL8:
	.loc 1 104 5 is_stmt 1 view .LVU21
	.loc 1 104 11 is_stmt 0 view .LVU22
	mov	x1, x19
	mov	w0, 24
	bl	signal
.LVL9:
	.loc 1 105 5 is_stmt 1 view .LVU23
	.loc 1 105 11 is_stmt 0 view .LVU24
	mov	x1, x19
	mov	w0, 25
	bl	signal
.LVL10:
	.loc 1 106 1 view .LVU25
	ldr	x19, [sp, 16]
	ldp	x29, x30, [sp], 32
	.cfi_restore 30
	.cfi_restore 29
	.cfi_restore 19
	.cfi_def_cfa_offset 0
	ret
	.cfi_endproc
.LFE3695:
	.size	_Z15register_signalv, .-_Z15register_signalv
	.section	.rodata.str1.8,"aMS",@progbits,1
	.align	3
.LC0:
	.string	"bash"
	.align	3
.LC1:
	.string	"/bin/bash"
	.align	3
.LC2:
	.string	"[SHINFO] "
	.align	3
.LC3:
	.string	"[SHERR] "
	.align	3
.LC4:
	.string	"[INFO] Script "
	.align	3
.LC5:
	.string	" exited with status "
	.align	3
.LC6:
	.string	"[ERROR] Script "
	.align	3
.LC7:
	.string	" terminated by signal "
	.align	3
.LC8:
	.string	"[ERROR] Failed to fork process.\n"
	.text
	.align	2
	.global	_Z14execute_scriptRKNSt7__cxx1112basic_stringIcSt11char_traitsIcESaIcEEE
	.type	_Z14execute_scriptRKNSt7__cxx1112basic_stringIcSt11char_traitsIcESaIcEEE, %function
_Z14execute_scriptRKNSt7__cxx1112basic_stringIcSt11char_traitsIcESaIcEEE:
.LVL11:
.LFB3696:
	.loc 1 108 52 is_stmt 1 view -0
	.cfi_startproc
	.loc 1 108 52 is_stmt 0 view .LVU27
	stp	x29, x30, [sp, -208]!
	.cfi_def_cfa_offset 208
	.cfi_offset 29, -208
	.cfi_offset 30, -200
	mov	x29, sp
	stp	x19, x20, [sp, 16]
	str	x21, [sp, 32]
	.cfi_offset 19, -192
	.cfi_offset 20, -184
	.cfi_offset 21, -176
	mov	x20, x0
	.loc 1 109 5 is_stmt 1 view .LVU28
	.loc 1 110 5 view .LVU29
	.loc 1 110 9 is_stmt 0 view .LVU30
	add	x0, sp, 200
.LVL12:
	.loc 1 110 9 view .LVU31
	bl	pipe
.LVL13:
	.loc 1 111 5 is_stmt 1 view .LVU32
	.loc 1 111 9 is_stmt 0 view .LVU33
	add	x0, sp, 192
	bl	pipe
.LVL14:
	.loc 1 113 5 is_stmt 1 view .LVU34
	.loc 1 113 21 is_stmt 0 view .LVU35
	bl	fork
.LVL15:
	.loc 1 114 5 is_stmt 1 view .LVU36
.LBB1154:
	cbz	w0, .L15
	mov	w21, w0
.LBE1154:
	.loc 1 122 12 view .LVU37
.LBB1186:
.LBB1155:
	cmp	w0, 0
	ble	.L7
.LBB1156:
	.loc 1 124 9 view .LVU38
	.loc 1 124 14 is_stmt 0 view .LVU39
	ldr	w0, [sp, 204]
.LVL16:
	.loc 1 124 14 view .LVU40
	bl	close
.LVL17:
	.loc 1 125 9 is_stmt 1 view .LVU41
	.loc 1 125 14 is_stmt 0 view .LVU42
	ldr	w0, [sp, 196]
	bl	close
.LVL18:
	b	.L8
.LVL19:
.L15:
	.loc 1 125 14 view .LVU43
.LBE1156:
.LBE1155:
	.loc 1 116 9 is_stmt 1 view .LVU44
	.loc 1 116 14 is_stmt 0 view .LVU45
	ldr	w0, [sp, 200]
.LVL20:
	.loc 1 116 14 view .LVU46
	bl	close
.LVL21:
	.loc 1 117 9 is_stmt 1 view .LVU47
	.loc 1 117 14 is_stmt 0 view .LVU48
	ldr	w0, [sp, 192]
	bl	close
.LVL22:
	.loc 1 118 9 is_stmt 1 view .LVU49
	.loc 1 118 13 is_stmt 0 view .LVU50
	mov	w1, 1
	ldr	w0, [sp, 204]
	bl	dup2
.LVL23:
	.loc 1 119 9 is_stmt 1 view .LVU51
	.loc 1 119 13 is_stmt 0 view .LVU52
	mov	w1, 2
	ldr	w0, [sp, 196]
	bl	dup2
.LVL24:
	.loc 1 120 9 is_stmt 1 view .LVU53
.LBB1181:
.LBI1181:
	.file 2 "/usr/include/c++/12/bits/basic_string.h"
	.loc 2 2554 7 view .LVU54
.LBB1182:
.LBI1182:
	.loc 2 233 7 view .LVU55
	.loc 2 233 7 is_stmt 0 view .LVU56
.LBE1182:
.LBE1181:
	.loc 1 120 14 view .LVU57
	mov	x3, 0
	ldr	x2, [x20]
	adrp	x1, .LC0
	add	x1, x1, :lo12:.LC0
	adrp	x0, .LC1
	add	x0, x0, :lo12:.LC1
	bl	execl
.LVL25:
	.loc 1 121 9 is_stmt 1 view .LVU58
	.loc 1 121 14 is_stmt 0 view .LVU59
	mov	w0, 1
	bl	_exit
.LVL26:
.L9:
.LBB1183:
.LBB1179:
	.loc 1 132 6 is_stmt 1 view .LVU60
.LBB1157:
.LBI1157:
	.file 3 "/usr/include/c++/12/array"
	.loc 3 206 7 view .LVU61
.LBB1158:
.LBI1158:
	.loc 3 60 7 view .LVU62
	.loc 3 60 7 is_stmt 0 view .LVU63
.LBE1158:
.LBE1157:
	.loc 1 132 16 view .LVU64
	add	x19, sp, 64
	strb	wzr, [x19, x0]
	.loc 1 133 6 is_stmt 1 view .LVU65
	.loc 1 133 46 is_stmt 0 view .LVU66
	adrp	x1, .LC2
	add	x1, x1, :lo12:.LC2
	adrp	x0, :got:_ZSt4cout
	ldr	x0, [x0, :got_lo12:_ZSt4cout]
.LVL27:
	.loc 1 133 46 view .LVU67
	bl	_ZStlsISt11char_traitsIcEERSt13basic_ostreamIcT_ES5_PKc
.LVL28:
.LBB1159:
.LBI1159:
	.loc 3 283 7 is_stmt 1 view .LVU68
	.loc 3 283 7 is_stmt 0 view .LVU69
.LBE1159:
	.loc 1 133 46 view .LVU70
	mov	x1, x19
	bl	_ZStlsISt11char_traitsIcEERSt13basic_ostreamIcT_ES5_PKc
.LVL29:
.L8:
	.loc 1 131 70 is_stmt 1 view .LVU71
.LBB1160:
.LBI1160:
	.loc 3 283 7 view .LVU72
	.loc 3 283 7 is_stmt 0 view .LVU73
.LBE1160:
	.loc 1 131 18 view .LVU74
	mov	x2, 127
	add	x1, sp, 64
	ldr	w0, [sp, 200]
	bl	read
.LVL30:
	.loc 1 131 70 view .LVU75
	cmp	x0, 0
	bgt	.L9
	b	.L10
.L11:
	.loc 1 136 6 is_stmt 1 view .LVU76
.LVL31:
.LBB1161:
.LBI1161:
	.loc 3 206 7 view .LVU77
.LBB1162:
.LBI1162:
	.loc 3 60 7 view .LVU78
	.loc 3 60 7 is_stmt 0 view .LVU79
.LBE1162:
.LBE1161:
	.loc 1 136 16 view .LVU80
	add	x19, sp, 64
	strb	wzr, [x19, x0]
	.loc 1 137 6 is_stmt 1 view .LVU81
	.loc 1 137 45 is_stmt 0 view .LVU82
	adrp	x1, .LC3
	add	x1, x1, :lo12:.LC3
	adrp	x0, :got:_ZSt4cerr
	ldr	x0, [x0, :got_lo12:_ZSt4cerr]
.LVL32:
	.loc 1 137 45 view .LVU83
	bl	_ZStlsISt11char_traitsIcEERSt13basic_ostreamIcT_ES5_PKc
.LVL33:
.LBB1163:
.LBI1163:
	.loc 3 283 7 is_stmt 1 view .LVU84
	.loc 3 283 7 is_stmt 0 view .LVU85
.LBE1163:
	.loc 1 137 45 view .LVU86
	mov	x1, x19
	bl	_ZStlsISt11char_traitsIcEERSt13basic_ostreamIcT_ES5_PKc
.LVL34:
.L10:
	.loc 1 135 70 is_stmt 1 view .LVU87
.LBB1164:
.LBI1164:
	.loc 3 283 7 view .LVU88
	.loc 3 283 7 is_stmt 0 view .LVU89
.LBE1164:
	.loc 1 135 18 view .LVU90
	mov	x2, 127
	add	x1, sp, 64
	ldr	w0, [sp, 192]
	bl	read
.LVL35:
	.loc 1 135 70 view .LVU91
	cmp	x0, 0
	bgt	.L11
	.loc 1 140 9 is_stmt 1 view .LVU92
	.loc 1 140 14 is_stmt 0 view .LVU93
	ldr	w0, [sp, 200]
.LVL36:
	.loc 1 140 14 view .LVU94
	bl	close
.LVL37:
	.loc 1 141 9 is_stmt 1 view .LVU95
	.loc 1 141 14 is_stmt 0 view .LVU96
	ldr	w0, [sp, 192]
	bl	close
.LVL38:
	.loc 1 144 9 is_stmt 1 view .LVU97
	.loc 1 145 9 view .LVU98
	.loc 1 145 16 is_stmt 0 view .LVU99
	mov	w2, 0
	add	x1, sp, 60
	mov	w0, w21
	bl	waitpid
.LVL39:
	.loc 1 146 9 is_stmt 1 view .LVU100
	.loc 1 146 14 is_stmt 0 view .LVU101
	ldr	w1, [sp, 60]
	.loc 1 146 9 view .LVU102
	tst	x1, 127
	beq	.L16
	.loc 1 148 16 is_stmt 1 view .LVU103
	.loc 1 148 21 is_stmt 0 view .LVU104
	and	w0, w1, 127
	.loc 1 148 29 view .LVU105
	add	w0, w0, 1
	.loc 1 148 34 view .LVU106
	sbfx	x0, x0, 1, 7
	.loc 1 148 16 view .LVU107
	cmp	w0, 0
	bgt	.L17
.L5:
.LBE1179:
.LBE1183:
.LBE1186:
	.loc 1 155 1 view .LVU108
	ldp	x19, x20, [sp, 16]
.LVL40:
	.loc 1 155 1 view .LVU109
	ldr	x21, [sp, 32]
.LVL41:
	.loc 1 155 1 view .LVU110
	ldp	x29, x30, [sp], 208
	.cfi_remember_state
	.cfi_restore 30
	.cfi_restore 29
	.cfi_restore 21
	.cfi_restore 19
	.cfi_restore 20
	.cfi_def_cfa_offset 0
	ret
.LVL42:
.L16:
	.cfi_restore_state
.LBB1187:
.LBB1184:
.LBB1180:
	.loc 1 147 13 is_stmt 1 view .LVU111
	.loc 1 147 60 is_stmt 0 view .LVU112
	adrp	x1, .LC4
	add	x1, x1, :lo12:.LC4
	adrp	x0, :got:_ZSt4cout
	ldr	x0, [x0, :got_lo12:_ZSt4cout]
	bl	_ZStlsISt11char_traitsIcEERSt13basic_ostreamIcT_ES5_PKc
.LVL43:
.LBB1165:
.LBI1165:
	.loc 2 3883 5 is_stmt 1 view .LVU113
.LBB1166:
.LBB1167:
.LBI1167:
	.loc 2 2567 7 view .LVU114
.LBB1168:
.LBI1168:
	.loc 2 233 7 view .LVU115
	.loc 2 233 7 is_stmt 0 view .LVU116
.LBE1168:
.LBE1167:
.LBB1169:
.LBI1169:
	.loc 2 1063 7 is_stmt 1 view .LVU117
	.loc 2 1063 7 is_stmt 0 view .LVU118
.LBE1169:
	.loc 2 3888 30 view .LVU119
	ldr	x2, [x20, 8]
	ldr	x1, [x20]
	bl	_ZSt16__ostream_insertIcSt11char_traitsIcEERSt13basic_ostreamIT_T0_ES6_PKS3_l
.LVL44:
	.loc 2 3888 30 view .LVU120
.LBE1166:
.LBE1165:
	.loc 1 147 60 view .LVU121
	adrp	x1, .LC5
	add	x1, x1, :lo12:.LC5
	bl	_ZStlsISt11char_traitsIcEERSt13basic_ostreamIcT_ES5_PKc
.LVL45:
	.loc 1 147 101 view .LVU122
	ldrb	w1, [sp, 61]
	bl	_ZNSolsEi
.LVL46:
.LBB1170:
.LBI1170:
	.file 4 "/usr/include/c++/12/ostream"
	.loc 4 108 7 is_stmt 1 view .LVU123
.LBB1171:
	.loc 4 113 13 is_stmt 0 view .LVU124
	bl	_ZSt4endlIcSt11char_traitsIcEERSt13basic_ostreamIT_T0_ES6_
.LVL47:
	.loc 4 113 19 view .LVU125
	b	.L5
.LVL48:
.L17:
	.loc 4 113 19 view .LVU126
.LBE1171:
.LBE1170:
	.loc 1 149 13 is_stmt 1 view .LVU127
	.loc 1 149 61 is_stmt 0 view .LVU128
	adrp	x1, .LC6
	add	x1, x1, :lo12:.LC6
	adrp	x0, :got:_ZSt4cout
	ldr	x0, [x0, :got_lo12:_ZSt4cout]
	bl	_ZStlsISt11char_traitsIcEERSt13basic_ostreamIcT_ES5_PKc
.LVL49:
.LBB1172:
.LBI1172:
	.loc 2 3883 5 is_stmt 1 view .LVU129
.LBB1173:
.LBB1174:
.LBI1174:
	.loc 2 2567 7 view .LVU130
.LBB1175:
.LBI1175:
	.loc 2 233 7 view .LVU131
	.loc 2 233 7 is_stmt 0 view .LVU132
.LBE1175:
.LBE1174:
.LBB1176:
.LBI1176:
	.loc 2 1063 7 is_stmt 1 view .LVU133
	.loc 2 1063 7 is_stmt 0 view .LVU134
.LBE1176:
	.loc 2 3888 30 view .LVU135
	ldr	x2, [x20, 8]
	ldr	x1, [x20]
	bl	_ZSt16__ostream_insertIcSt11char_traitsIcEERSt13basic_ostreamIT_T0_ES6_PKS3_l
.LVL50:
	.loc 2 3888 30 view .LVU136
.LBE1173:
.LBE1172:
	.loc 1 149 61 view .LVU137
	adrp	x1, .LC7
	add	x1, x1, :lo12:.LC7
	bl	_ZStlsISt11char_traitsIcEERSt13basic_ostreamIcT_ES5_PKc
.LVL51:
	.loc 1 149 96 view .LVU138
	ldr	w1, [sp, 60]
	and	w1, w1, 127
	bl	_ZNSolsEi
.LVL52:
.LBB1177:
.LBI1177:
	.loc 4 108 7 is_stmt 1 view .LVU139
.LBB1178:
	.loc 4 113 13 is_stmt 0 view .LVU140
	bl	_ZSt4endlIcSt11char_traitsIcEERSt13basic_ostreamIT_T0_ES6_
.LVL53:
	.loc 4 113 13 view .LVU141
.LBE1178:
.LBE1177:
.LBE1180:
.LBE1184:
.LBE1187:
	.loc 1 155 1 view .LVU142
	b	.L5
.LVL54:
.L7:
.LBB1188:
.LBB1185:
	.loc 1 152 9 is_stmt 1 view .LVU143
	.loc 1 152 22 is_stmt 0 view .LVU144
	adrp	x1, .LC8
	add	x1, x1, :lo12:.LC8
	adrp	x0, :got:_ZSt4cerr
	ldr	x0, [x0, :got_lo12:_ZSt4cerr]
.LVL55:
	.loc 1 152 22 view .LVU145
	bl	_ZStlsISt11char_traitsIcEERSt13basic_ostreamIcT_ES5_PKc
.LVL56:
	.loc 1 153 9 is_stmt 1 view .LVU146
	.loc 1 153 13 is_stmt 0 view .LVU147
	mov	w0, 1
	bl	exit
.LVL57:
.LBE1185:
.LBE1188:
	.cfi_endproc
.LFE3696:
	.size	_Z14execute_scriptRKNSt7__cxx1112basic_stringIcSt11char_traitsIcESaIcEEE, .-_Z14execute_scriptRKNSt7__cxx1112basic_stringIcSt11char_traitsIcESaIcEEE
	.section	.rodata.str1.8
	.align	3
.LC9:
	.string	"[INFO] Script exited with status "
	.align	3
.LC10:
	.string	"[ERROR] Script terminated by signal "
	.align	3
.LC11:
	.string	"[INFO] Child process killed due to timeout.\n"
	.align	3
.LC12:
	.string	"[ERROR] Failed to kill child process.\n"
	.text
	.align	2
	.global	_Z13monitor_childi
	.type	_Z13monitor_childi, %function
_Z13monitor_childi:
.LVL58:
.LFB3700:
	.loc 1 157 31 is_stmt 1 view -0
	.cfi_startproc
	.loc 1 157 31 is_stmt 0 view .LVU149
	stp	x29, x30, [sp, -48]!
	.cfi_def_cfa_offset 48
	.cfi_offset 29, -48
	.cfi_offset 30, -40
	mov	x29, sp
	stp	x19, x20, [sp, 16]
	.cfi_offset 19, -32
	.cfi_offset 20, -24
	mov	w20, w0
	.loc 1 158 5 is_stmt 1 view .LVU150
	.loc 1 159 5 view .LVU151
.LVL59:
	.loc 1 160 5 view .LVU152
.LBB1189:
	.loc 1 160 14 is_stmt 0 view .LVU153
	mov	w19, 0
.LVL60:
.L19:
	.loc 1 160 23 is_stmt 1 discriminator 1 view .LVU154
	cmp	w19, 399
	bgt	.L27
	.loc 1 161 9 view .LVU155
	.loc 1 161 20 is_stmt 0 view .LVU156
	mov	w2, 1
	add	x1, sp, 44
	mov	w0, w20
	bl	waitpid
.LVL61:
	.loc 1 161 9 view .LVU157
	cmp	w20, w0
	beq	.L28
	.loc 1 169 9 is_stmt 1 view .LVU158
	.loc 1 169 14 is_stmt 0 view .LVU159
	mov	w0, 1
	bl	sleep
.LVL62:
	.loc 1 160 5 is_stmt 1 view .LVU160
	add	w19, w19, 1
.LVL63:
	.loc 1 160 5 is_stmt 0 view .LVU161
	b	.L19
.L28:
	.loc 1 162 13 is_stmt 1 view .LVU162
	.loc 1 162 18 is_stmt 0 view .LVU163
	ldr	w0, [sp, 44]
	.loc 1 162 13 view .LVU164
	tst	x0, 127
	beq	.L29
	.loc 1 164 20 is_stmt 1 view .LVU165
	.loc 1 164 25 is_stmt 0 view .LVU166
	and	w0, w0, 127
	.loc 1 164 33 view .LVU167
	add	w0, w0, 1
	.loc 1 164 38 view .LVU168
	sbfx	x0, x0, 1, 7
	.loc 1 164 20 view .LVU169
	cmp	w0, 0
	bgt	.L30
.L18:
	.loc 1 164 20 view .LVU170
.LBE1189:
	.loc 1 179 1 view .LVU171
	ldp	x19, x20, [sp, 16]
.LVL64:
	.loc 1 179 1 view .LVU172
	ldp	x29, x30, [sp], 48
	.cfi_remember_state
	.cfi_restore 30
	.cfi_restore 29
	.cfi_restore 19
	.cfi_restore 20
	.cfi_def_cfa_offset 0
	ret
.LVL65:
.L29:
	.cfi_restore_state
.LBB1196:
	.loc 1 163 17 is_stmt 1 view .LVU173
	.loc 1 163 30 is_stmt 0 view .LVU174
	adrp	x1, .LC9
	add	x1, x1, :lo12:.LC9
	adrp	x0, :got:_ZSt4cout
	ldr	x0, [x0, :got_lo12:_ZSt4cout]
	bl	_ZStlsISt11char_traitsIcEERSt13basic_ostreamIcT_ES5_PKc
.LVL66:
	.loc 1 163 84 view .LVU175
	ldrb	w1, [sp, 45]
	bl	_ZNSolsEi
.LVL67:
.LBB1190:
.LBI1190:
	.loc 4 108 7 is_stmt 1 view .LVU176
.LBB1191:
	.loc 4 113 13 is_stmt 0 view .LVU177
	bl	_ZSt4endlIcSt11char_traitsIcEERSt13basic_ostreamIT_T0_ES6_
.LVL68:
	.loc 4 113 19 view .LVU178
	b	.L18
.LVL69:
.L30:
	.loc 4 113 19 view .LVU179
.LBE1191:
.LBE1190:
	.loc 1 165 17 is_stmt 1 view .LVU180
	.loc 1 165 30 is_stmt 0 view .LVU181
	adrp	x1, .LC10
	add	x1, x1, :lo12:.LC10
	adrp	x0, :got:_ZSt4cout
	ldr	x0, [x0, :got_lo12:_ZSt4cout]
	bl	_ZStlsISt11char_traitsIcEERSt13basic_ostreamIcT_ES5_PKc
.LVL70:
	.loc 1 165 79 view .LVU182
	ldr	w1, [sp, 44]
	and	w1, w1, 127
	bl	_ZNSolsEi
.LVL71:
.LBB1192:
.LBI1192:
	.loc 4 108 7 is_stmt 1 view .LVU183
.LBB1193:
	.loc 4 113 13 is_stmt 0 view .LVU184
	bl	_ZSt4endlIcSt11char_traitsIcEERSt13basic_ostreamIT_T0_ES6_
.LVL72:
	.loc 4 113 13 view .LVU185
.LBE1193:
.LBE1192:
	.loc 1 167 13 is_stmt 1 view .LVU186
.LBB1195:
.LBB1194:
	.loc 4 113 19 is_stmt 0 view .LVU187
	b	.L18
.L27:
	.loc 4 113 19 view .LVU188
.LBE1194:
.LBE1195:
.LBE1196:
	.loc 1 172 5 is_stmt 1 view .LVU189
	.loc 1 172 13 is_stmt 0 view .LVU190
	mov	w1, 9
	mov	w0, w20
	bl	kill
.LVL73:
	.loc 1 172 5 view .LVU191
	cbnz	w0, .L25
	.loc 1 173 9 is_stmt 1 view .LVU192
	.loc 1 173 16 is_stmt 0 view .LVU193
	mov	w2, 0
	add	x1, sp, 44
	mov	w0, w20
	bl	waitpid
.LVL74:
	.loc 1 174 9 is_stmt 1 view .LVU194
	.loc 1 174 22 is_stmt 0 view .LVU195
	adrp	x1, .LC11
	add	x1, x1, :lo12:.LC11
	adrp	x0, :got:_ZSt4cerr
	ldr	x0, [x0, :got_lo12:_ZSt4cerr]
	bl	_ZStlsISt11char_traitsIcEERSt13basic_ostreamIcT_ES5_PKc
.LVL75:
	b	.L18
.L25:
	.loc 1 176 9 is_stmt 1 view .LVU196
	.loc 1 176 22 is_stmt 0 view .LVU197
	adrp	x1, .LC12
	add	x1, x1, :lo12:.LC12
	adrp	x0, :got:_ZSt4cerr
	ldr	x0, [x0, :got_lo12:_ZSt4cerr]
	bl	_ZStlsISt11char_traitsIcEERSt13basic_ostreamIcT_ES5_PKc
.LVL76:
	.loc 1 177 9 is_stmt 1 view .LVU198
	.loc 1 177 13 is_stmt 0 view .LVU199
	mov	w0, 4
	bl	exit
.LVL77:
	.cfi_endproc
.LFE3700:
	.size	_Z13monitor_childi, .-_Z13monitor_childi
	.section	.text._ZNSt8__detail14__to_chars_lenIjEEjT_i,"axG",@progbits,_ZNSt8__detail14__to_chars_lenIjEEjT_i,comdat
	.align	2
	.weak	_ZNSt8__detail14__to_chars_lenIjEEjT_i
	.type	_ZNSt8__detail14__to_chars_lenIjEEjT_i, %function
_ZNSt8__detail14__to_chars_lenIjEEjT_i:
.LVL78:
.LFB3802:
	.file 5 "/usr/include/c++/12/bits/charconv.h"
	.loc 5 47 5 is_stmt 1 view -0
	.cfi_startproc
	.loc 5 47 5 is_stmt 0 view .LVU201
	mov	w2, w0
.LVL79:
	.loc 5 53 36 view .LVU202
	mul	w4, w1, w1
.LVL80:
	.loc 5 54 22 view .LVU203
	mul	w5, w1, w4
.LVL81:
	.loc 5 55 39 view .LVU204
	mul	w6, w1, w5
	.loc 5 55 27 view .LVU205
	uxtw	x7, w6
.LVL82:
	.loc 5 52 16 view .LVU206
	mov	w0, 1
.LVL83:
.L36:
	.loc 5 58 4 view .LVU207
	cmp	w1, w2
	bhi	.L31
	.loc 5 59 4 view .LVU208
	cmp	w2, w4
	bcc	.L37
	.loc 5 60 4 view .LVU209
	cmp	w2, w5
	bcc	.L38
	.loc 5 61 8 view .LVU210
	uxtw	x3, w2
	.loc 5 61 4 view .LVU211
	cmp	w6, w2
	bhi	.L39
	.loc 5 62 12 view .LVU212
	udiv	x2, x3, x7
.LVL84:
	.loc 5 63 8 view .LVU213
	add	w0, w0, 4
.LVL85:
	.loc 5 56 7 is_stmt 1 view .LVU214
	.loc 5 58 4 is_stmt 0 view .LVU215
	b	.L36
.L37:
	.loc 5 59 37 discriminator 1 view .LVU216
	add	w0, w0, 1
.LVL86:
.L31:
	.loc 5 65 5 view .LVU217
	ret
.LVL87:
.L38:
	.loc 5 60 37 discriminator 1 view .LVU218
	add	w0, w0, 2
.LVL88:
	.loc 5 60 37 discriminator 1 view .LVU219
	b	.L31
.LVL89:
.L39:
	.loc 5 61 37 discriminator 1 view .LVU220
	add	w0, w0, 3
.LVL90:
	.loc 5 61 37 discriminator 1 view .LVU221
	b	.L31
	.cfi_endproc
.LFE3802:
	.size	_ZNSt8__detail14__to_chars_lenIjEEjT_i, .-_ZNSt8__detail14__to_chars_lenIjEEjT_i
	.section	.text._ZNSt8__detail18__to_chars_10_implIjEEvPcjT_,"axG",@progbits,_ZNSt8__detail18__to_chars_10_implIjEEvPcjT_,comdat
	.align	2
	.weak	_ZNSt8__detail18__to_chars_10_implIjEEvPcjT_
	.type	_ZNSt8__detail18__to_chars_10_implIjEEvPcjT_, %function
_ZNSt8__detail18__to_chars_10_implIjEEvPcjT_:
.LVL91:
.LFB3819:
	.loc 5 72 5 is_stmt 1 view -0
	.cfi_startproc
	.loc 5 83 16 is_stmt 0 view .LVU223
	sub	w1, w1, #1
.LVL92:
	.loc 5 84 7 view .LVU224
	b	.L41
.LVL93:
.L42:
.LBB1197:
	.loc 5 86 30 view .LVU225
	mov	w4, 34079
	movk	w4, 0x51eb, lsl 16
	umull	x4, w2, w4
	lsr	x3, x4, 37
	mov	w5, 100
	msub	w3, w3, w5, w2
	.loc 5 86 15 view .LVU226
	lsl	w3, w3, 1
.LVL94:
	.loc 5 87 10 view .LVU227
	lsr	x2, x4, 37
.LVL95:
	.loc 5 88 36 view .LVU228
	add	w5, w3, 1
	.loc 5 88 29 view .LVU229
	adrp	x4, _ZZNSt8__detail18__to_chars_10_implIjEEvPcjT_E8__digits
	add	x4, x4, :lo12:_ZZNSt8__detail18__to_chars_10_implIjEEvPcjT_E8__digits
	ldrb	w5, [x4, w5, uxtw]
	.loc 5 88 19 view .LVU230
	strb	w5, [x0, w1, uxtw]
	.loc 5 89 18 view .LVU231
	sub	w5, w1, #1
	.loc 5 89 33 view .LVU232
	ldrb	w3, [x4, w3, uxtw]
.LVL96:
	.loc 5 89 23 view .LVU233
	strb	w3, [x0, w5, uxtw]
	.loc 5 90 10 view .LVU234
	sub	w1, w1, #2
.LVL97:
.L41:
	.loc 5 90 10 view .LVU235
.LBE1197:
	.loc 5 84 20 is_stmt 1 view .LVU236
	cmp	w2, 99
	bhi	.L42
.LBB1198:
	.loc 5 92 7 is_stmt 0 view .LVU237
	cmp	w2, 9
	bls	.L43
.LBB1199:
	.loc 5 94 15 view .LVU238
	lsl	w2, w2, 1
.LVL98:
	.loc 5 95 32 view .LVU239
	add	w3, w2, 1
	.loc 5 95 25 view .LVU240
	adrp	x1, _ZZNSt8__detail18__to_chars_10_implIjEEvPcjT_E8__digits
.LVL99:
	.loc 5 95 25 view .LVU241
	add	x1, x1, :lo12:_ZZNSt8__detail18__to_chars_10_implIjEEvPcjT_E8__digits
	ldrb	w3, [x1, w3, uxtw]
	.loc 5 95 15 view .LVU242
	strb	w3, [x0, 1]
	.loc 5 96 25 view .LVU243
	ldrb	w1, [x1, w2, uxtw]
	.loc 5 96 15 view .LVU244
	strb	w1, [x0]
.LVL100:
.L40:
	.loc 5 96 15 view .LVU245
.LBE1199:
.LBE1198:
	.loc 5 100 5 view .LVU246
	ret
.LVL101:
.L43:
.LBB1200:
	.loc 5 99 19 view .LVU247
	add	w2, w2, 48
.LVL102:
	.loc 5 99 13 view .LVU248
	strb	w2, [x0]
.LBE1200:
	.loc 5 100 5 view .LVU249
	b	.L40
	.cfi_endproc
.LFE3819:
	.size	_ZNSt8__detail18__to_chars_10_implIjEEvPcjT_, .-_ZNSt8__detail18__to_chars_10_implIjEEvPcjT_
	.section	.text._ZNSt7__cxx119to_stringEi,"axG",@progbits,_ZNSt7__cxx119to_stringEi,comdat
	.align	2
	.weak	_ZNSt7__cxx119to_stringEi
	.type	_ZNSt7__cxx119to_stringEi, %function
_ZNSt7__cxx119to_stringEi:
.LVL103:
.LFB1189:
	.loc 2 4016 3 is_stmt 1 view -0
	.cfi_startproc
	.cfi_personality 0x9b,DW.ref.__gxx_personality_v0
	.cfi_lsda 0x1b,.LLSDA1189
	.loc 2 4016 3 is_stmt 0 view .LVU251
	stp	x29, x30, [sp, -48]!
	.cfi_def_cfa_offset 48
	.cfi_offset 29, -48
	.cfi_offset 30, -40
	mov	x29, sp
	stp	x19, x20, [sp, 16]
	stp	x21, x22, [sp, 32]
	.cfi_offset 19, -32
	.cfi_offset 20, -24
	.cfi_offset 21, -16
	.cfi_offset 22, -8
	mov	x20, x8
	.loc 2 4017 5 is_stmt 1 view .LVU252
	.loc 2 4017 16 is_stmt 0 view .LVU253
	lsr	w21, w0, 31
.LVL104:
	.loc 2 4018 5 is_stmt 1 view .LVU254
	.loc 2 4018 35 is_stmt 0 view .LVU255
	tbnz	w0, #31, .L49
	.loc 2 4018 35 discriminator 2 view .LVU256
	mov	w19, w0
.L47:
.LVL105:
	.loc 2 4019 5 is_stmt 1 discriminator 4 view .LVU257
	.loc 2 4019 48 is_stmt 0 discriminator 4 view .LVU258
	mov	w1, 10
	mov	w0, w19
.LVL106:
	.loc 2 4019 48 discriminator 4 view .LVU259
	bl	_ZNSt8__detail14__to_chars_lenIjEEjT_i
.LVL107:
	mov	w22, w0
.LVL108:
	.loc 2 4020 5 is_stmt 1 discriminator 4 view .LVU260
.LBB1201:
.LBI1201:
	.file 6 "/usr/include/c++/12/bits/allocator.h"
	.loc 6 156 7 discriminator 4 view .LVU261
.LBB1202:
.LBI1202:
	.file 7 "/usr/include/c++/12/bits/new_allocator.h"
	.loc 7 80 7 discriminator 4 view .LVU262
	.loc 7 80 7 is_stmt 0 discriminator 4 view .LVU263
.LBE1202:
.LBE1201:
.LBB1203:
.LBI1203:
	.loc 2 657 7 is_stmt 1 discriminator 4 view .LVU264
.LBB1204:
.LBB1205:
.LBI1205:
	.loc 2 238 7 discriminator 4 view .LVU265
.LBB1206:
	.loc 2 241 51 is_stmt 0 discriminator 4 view .LVU266
	add	x0, x20, 16
.LVL109:
	.loc 2 241 51 discriminator 4 view .LVU267
.LBE1206:
.LBE1205:
.LBB1207:
.LBI1207:
	.loc 2 199 2 is_stmt 1 discriminator 4 view .LVU268
.LBB1208:
.LBB1209:
.LBI1209:
	.loc 6 159 7 discriminator 4 view .LVU269
.LBB1210:
.LBI1210:
	.loc 7 83 7 discriminator 4 view .LVU270
	.loc 7 83 7 is_stmt 0 discriminator 4 view .LVU271
.LBE1210:
.LBE1209:
	.loc 2 200 25 discriminator 4 view .LVU272
	str	x0, [x20]
.LVL110:
	.loc 2 200 25 discriminator 4 view .LVU273
.LBE1208:
.LBE1207:
	.loc 2 659 21 discriminator 4 view .LVU274
	mov	w2, 45
	add	w1, w21, w22
.LVL111:
	.loc 2 659 21 discriminator 4 view .LVU275
	mov	x0, x20
	bl	_ZNSt7__cxx1112basic_stringIcSt11char_traitsIcESaIcEE12_M_constructEmc
.LVL112:
	.loc 2 659 21 discriminator 4 view .LVU276
.LBE1204:
.LBE1203:
.LBB1211:
.LBI1211:
	.loc 6 174 7 is_stmt 1 discriminator 4 view .LVU277
.LBB1212:
.LBI1212:
	.loc 7 90 7 discriminator 4 view .LVU278
	.loc 7 90 7 is_stmt 0 discriminator 4 view .LVU279
.LBE1212:
.LBE1211:
	.loc 2 4021 5 is_stmt 1 discriminator 4 view .LVU280
	.loc 2 4021 46 is_stmt 0 discriminator 4 view .LVU281
	uxtw	x21, w21
.LVL113:
.LBB1213:
.LBI1213:
	.loc 2 1217 7 is_stmt 1 discriminator 4 view .LVU282
.LBB1214:
	.loc 2 1221 2 discriminator 4 view .LVU283
.LBB1215:
.LBI1215:
	.loc 2 233 7 discriminator 4 view .LVU284
.LBB1216:
	.loc 2 234 28 is_stmt 0 discriminator 4 view .LVU285
	ldr	x0, [x20]
.LVL114:
	.loc 2 234 28 discriminator 4 view .LVU286
.LBE1216:
.LBE1215:
.LBE1214:
.LBE1213:
	.loc 2 4021 33 discriminator 4 view .LVU287
	mov	w2, w19
	mov	w1, w22
	add	x0, x0, x21
	bl	_ZNSt8__detail18__to_chars_10_implIjEEvPcjT_
.LVL115:
	.loc 2 4022 5 is_stmt 1 discriminator 4 view .LVU288
	.loc 2 4023 3 is_stmt 0 discriminator 4 view .LVU289
	mov	x0, x20
	ldp	x19, x20, [sp, 16]
.LVL116:
	.loc 2 4023 3 discriminator 4 view .LVU290
	ldp	x21, x22, [sp, 32]
.LVL117:
	.loc 2 4023 3 discriminator 4 view .LVU291
	ldp	x29, x30, [sp], 48
	.cfi_remember_state
	.cfi_restore 30
	.cfi_restore 29
	.cfi_restore 21
	.cfi_restore 22
	.cfi_restore 19
	.cfi_restore 20
	.cfi_def_cfa_offset 0
	ret
.LVL118:
.L49:
	.cfi_restore_state
	.loc 2 4018 35 discriminator 1 view .LVU292
	neg	w19, w0
	b	.L47
	.cfi_endproc
.LFE1189:
	.global	__gxx_personality_v0
	.section	.gcc_except_table._ZNSt7__cxx119to_stringEi,"aG",@progbits,_ZNSt7__cxx119to_stringEi,comdat
.LLSDA1189:
	.byte	0xff
	.byte	0xff
	.byte	0x1
	.uleb128 .LLSDACSE1189-.LLSDACSB1189
.LLSDACSB1189:
.LLSDACSE1189:
	.section	.text._ZNSt7__cxx119to_stringEi,"axG",@progbits,_ZNSt7__cxx119to_stringEi,comdat
	.size	_ZNSt7__cxx119to_stringEi, .-_ZNSt7__cxx119to_stringEi
	.section	.text._ZStplIcSt11char_traitsIcESaIcEENSt7__cxx1112basic_stringIT_T0_T1_EEPKS5_OS8_,"axG",@progbits,_ZStplIcSt11char_traitsIcESaIcEENSt7__cxx1112basic_stringIT_T0_T1_EEPKS5_OS8_,comdat
	.align	2
	.weak	_ZStplIcSt11char_traitsIcESaIcEENSt7__cxx1112basic_stringIT_T0_T1_EEPKS5_OS8_
	.type	_ZStplIcSt11char_traitsIcESaIcEENSt7__cxx1112basic_stringIT_T0_T1_EEPKS5_OS8_, %function
_ZStplIcSt11char_traitsIcESaIcEENSt7__cxx1112basic_stringIT_T0_T1_EEPKS5_OS8_:
.LVL119:
.LFB3962:
	.loc 2 3539 5 is_stmt 1 view -0
	.cfi_startproc
	.loc 2 3539 5 is_stmt 0 view .LVU294
	stp	x29, x30, [sp, -32]!
	.cfi_def_cfa_offset 32
	.cfi_offset 29, -32
	.cfi_offset 30, -24
	mov	x29, sp
	str	x19, [sp, 16]
	.cfi_offset 19, -16
	mov	x19, x8
	mov	x2, x0
	mov	x0, x1
.LVL120:
	.loc 2 3541 36 view .LVU295
	mov	x1, 0
.LVL121:
	.loc 2 3541 36 view .LVU296
	bl	_ZNSt7__cxx1112basic_stringIcSt11char_traitsIcESaIcEE6insertEmPKc
.LVL122:
	.loc 2 3541 46 view .LVU297
	mov	x1, x0
	mov	x0, x19
	bl	_ZNSt7__cxx1112basic_stringIcSt11char_traitsIcESaIcEEC1EOS4_
.LVL123:
	.loc 2 3541 49 view .LVU298
	mov	x0, x19
	ldr	x19, [sp, 16]
	ldp	x29, x30, [sp], 32
	.cfi_restore 30
	.cfi_restore 29
	.cfi_restore 19
	.cfi_def_cfa_offset 0
	ret
	.cfi_endproc
.LFE3962:
	.size	_ZStplIcSt11char_traitsIcESaIcEENSt7__cxx1112basic_stringIT_T0_T1_EEPKS5_OS8_, .-_ZStplIcSt11char_traitsIcESaIcEENSt7__cxx1112basic_stringIT_T0_T1_EEPKS5_OS8_
	.section	.text._ZNSt10unique_ptrINSt10filesystem7__cxx114path5_List5_ImplENS3_13_Impl_deleterEED2Ev,"axG",@progbits,_ZNSt10unique_ptrINSt10filesystem7__cxx114path5_List5_ImplENS3_13_Impl_deleterEED5Ev,comdat
	.align	2
	.weak	_ZNSt10unique_ptrINSt10filesystem7__cxx114path5_List5_ImplENS3_13_Impl_deleterEED2Ev
	.type	_ZNSt10unique_ptrINSt10filesystem7__cxx114path5_List5_ImplENS3_13_Impl_deleterEED2Ev, %function
_ZNSt10unique_ptrINSt10filesystem7__cxx114path5_List5_ImplENS3_13_Impl_deleterEED2Ev:
.LVL124:
.LFB4014:
	.file 8 "/usr/include/c++/12/bits/unique_ptr.h"
	.loc 8 390 7 is_stmt 1 view -0
	.cfi_startproc
	.loc 8 390 7 is_stmt 0 view .LVU300
	stp	x29, x30, [sp, -32]!
	.cfi_def_cfa_offset 32
	.cfi_offset 29, -32
	.cfi_offset 30, -24
	mov	x29, sp
	str	x19, [sp, 16]
	.cfi_offset 19, -16
	mov	x19, x0
.LVL125:
.LBB1217:
.LBB1218:
.LBI1218:
	.loc 8 189 16 is_stmt 1 view .LVU301
	.loc 8 189 16 is_stmt 0 view .LVU302
.LBE1218:
	.loc 8 395 12 view .LVU303
	ldr	x1, [x0]
	.loc 8 395 2 view .LVU304
	cbz	x1, .L53
.LVL126:
.LBB1219:
.LBI1219:
	.loc 8 467 7 is_stmt 1 view .LVU305
.LBB1220:
.LBI1220:
	.loc 8 193 12 view .LVU306
.LBB1221:
.LBI1221:
	.file 9 "/usr/include/c++/12/tuple"
	.loc 9 1380 5 view .LVU307
.LBB1222:
.LBI1222:
	.loc 9 1364 5 view .LVU308
.LBB1223:
.LBI1223:
	.loc 9 424 7 view .LVU309
.LBB1224:
.LBI1224:
	.loc 9 124 7 view .LVU310
	.loc 9 124 7 is_stmt 0 view .LVU311
.LBE1224:
.LBE1223:
.LBE1222:
.LBE1221:
.LBE1220:
.LBE1219:
	.loc 8 396 17 view .LVU312
	bl	_ZNKSt10filesystem7__cxx114path5_List13_Impl_deleterclEPNS2_5_ImplE
.LVL127:
.L53:
	.loc 8 397 8 view .LVU313
	str	xzr, [x19]
.LBE1217:
	.loc 8 398 7 view .LVU314
	ldr	x19, [sp, 16]
.LVL128:
	.loc 8 398 7 view .LVU315
	ldp	x29, x30, [sp], 32
	.cfi_restore 30
	.cfi_restore 29
	.cfi_restore 19
	.cfi_def_cfa_offset 0
	ret
	.cfi_endproc
.LFE4014:
	.size	_ZNSt10unique_ptrINSt10filesystem7__cxx114path5_List5_ImplENS3_13_Impl_deleterEED2Ev, .-_ZNSt10unique_ptrINSt10filesystem7__cxx114path5_List5_ImplENS3_13_Impl_deleterEED2Ev
	.weak	_ZNSt10unique_ptrINSt10filesystem7__cxx114path5_List5_ImplENS3_13_Impl_deleterEED1Ev
	.set	_ZNSt10unique_ptrINSt10filesystem7__cxx114path5_List5_ImplENS3_13_Impl_deleterEED1Ev,_ZNSt10unique_ptrINSt10filesystem7__cxx114path5_List5_ImplENS3_13_Impl_deleterEED2Ev
	.section	.rodata.str1.8
	.align	3
.LC13:
	.string	"%Y-%m-%d %H:%M:%S"
	.align	3
.LC14:
	.string	"["
	.align	3
.LC15:
	.string	"] "
	.align	3
.LC16:
	.string	"[ERROR] Failed to open log file.\n"
	.text
	.align	2
	.type	_ZL9write_logPKc, %function
_ZL9write_logPKc:
.LVL129:
.LFB3693:
	.loc 1 45 40 is_stmt 1 view -0
	.cfi_startproc
	.cfi_personality 0x9b,DW.ref.__gxx_personality_v0
	.cfi_lsda 0x1b,.LLSDA3693
	.loc 1 45 40 is_stmt 0 view .LVU317
	sub	sp, sp, #672
	.cfi_def_cfa_offset 672
	stp	x29, x30, [sp]
	.cfi_offset 29, -672
	.cfi_offset 30, -664
	mov	x29, sp
	stp	x19, x20, [sp, 16]
	.cfi_offset 19, -656
	.cfi_offset 20, -648
	mov	x19, x0
	.loc 1 46 5 is_stmt 1 view .LVU318
	.loc 1 46 39 is_stmt 0 view .LVU319
	add	x20, sp, 48
	mov	x8, x20
.LEHB0:
	bl	_ZL12get_log_pathv
.LVL130:
.LEHE0:
	.loc 1 46 56 view .LVU320
	mov	w2, 1
	mov	x1, x20
	add	x0, sp, 152
.LEHB1:
	bl	_ZNSt14basic_ofstreamIcSt11char_traitsIcEEC1ERKNSt7__cxx1112basic_stringIcS1_SaIcEEESt13_Ios_Openmode
.LVL131:
.LEHE1:
.LBB1225:
.LBI1225:
	.loc 2 794 7 is_stmt 1 view .LVU321
.LBB1226:
	.loc 2 795 19 is_stmt 0 view .LVU322
	mov	x0, x20
	bl	_ZNSt7__cxx1112basic_stringIcSt11char_traitsIcESaIcEE10_M_disposeEv
.LVL132:
.LBB1227:
.LBI1227:
	.loc 2 192 14 is_stmt 1 view .LVU323
.LBB1228:
.LBB1229:
.LBI1229:
	.loc 6 174 7 view .LVU324
.LBB1230:
.LBI1230:
	.loc 7 90 7 view .LVU325
	.loc 7 90 7 is_stmt 0 view .LVU326
.LBE1230:
.LBE1229:
.LBE1228:
.LBE1227:
.LBE1226:
.LBE1225:
	.loc 1 47 5 is_stmt 1 view .LVU327
.LBB1231:
.LBB1232:
.LBI1232:
	.file 10 "/usr/include/c++/12/fstream"
	.loc 10 908 7 view .LVU328
.LBB1233:
.LBI1233:
	.loc 10 270 7 view .LVU329
.LBB1234:
	.loc 10 271 31 is_stmt 0 view .LVU330
	add	x0, sp, 272
	bl	_ZNKSt12__basic_fileIcE7is_openEv
.LVL133:
	and	w2, w0, 255
.LVL134:
	.loc 10 271 31 view .LVU331
.LBE1234:
.LBE1233:
.LBE1232:
	.loc 1 47 5 view .LVU332
	cbz	w2, .L56
.LBB1235:
	.loc 1 48 9 is_stmt 1 view .LVU333
	.loc 1 48 34 is_stmt 0 view .LVU334
	mov	x0, 0
	bl	time
.LVL135:
	.loc 1 48 42 view .LVU335
	str	x0, [sp, 40]
	.loc 1 49 9 is_stmt 1 view .LVU336
	.loc 1 50 9 view .LVU337
	.loc 1 50 88 is_stmt 0 view .LVU338
	add	x0, sp, 40
	bl	localtime
.LVL136:
	.loc 1 50 22 view .LVU339
	mov	x3, x0
	adrp	x2, .LC13
	add	x2, x2, :lo12:.LC13
	mov	x1, 100
	mov	x0, x20
	bl	strftime
.LVL137:
	.loc 1 51 9 is_stmt 1 view .LVU340
	.loc 1 51 48 is_stmt 0 view .LVU341
	adrp	x1, .LC14
	add	x1, x1, :lo12:.LC14
	add	x0, sp, 152
.LEHB2:
	bl	_ZStlsISt11char_traitsIcEERSt13basic_ostreamIcT_ES5_PKc
.LVL138:
	mov	x1, x20
	bl	_ZStlsISt11char_traitsIcEERSt13basic_ostreamIcT_ES5_PKc
.LVL139:
	.loc 1 51 48 discriminator 1 view .LVU342
	adrp	x1, .LC15
	add	x1, x1, :lo12:.LC15
	bl	_ZStlsISt11char_traitsIcEERSt13basic_ostreamIcT_ES5_PKc
.LVL140:
	.loc 1 51 48 discriminator 2 view .LVU343
	mov	x1, x19
	bl	_ZStlsISt11char_traitsIcEERSt13basic_ostreamIcT_ES5_PKc
.LVL141:
.LBB1236:
.LBI1236:
	.loc 4 108 7 is_stmt 1 discriminator 3 view .LVU344
.LBB1237:
	.loc 4 113 13 is_stmt 0 discriminator 3 view .LVU345
	bl	_ZSt4endlIcSt11char_traitsIcEERSt13basic_ostreamIT_T0_ES6_
.LVL142:
	.loc 4 113 13 discriminator 3 view .LVU346
.LBE1237:
.LBE1236:
	.loc 1 52 9 is_stmt 1 view .LVU347
	.loc 1 52 22 is_stmt 0 view .LVU348
	add	x0, sp, 152
	bl	_ZNSt14basic_ofstreamIcSt11char_traitsIcEE5closeEv
.LVL143:
.LBE1235:
.LBE1231:
	.loc 1 57 1 view .LVU349
	add	x0, sp, 152
	bl	_ZNSt14basic_ofstreamIcSt11char_traitsIcEED1Ev
.LVL144:
	ldp	x19, x20, [sp, 16]
.LVL145:
	.loc 1 57 1 view .LVU350
	ldp	x29, x30, [sp]
	add	sp, sp, 672
	.cfi_remember_state
	.cfi_restore 29
	.cfi_restore 30
	.cfi_restore 19
	.cfi_restore 20
	.cfi_def_cfa_offset 0
	ret
.LVL146:
.L56:
	.cfi_restore_state
.LBB1238:
	.loc 1 54 9 is_stmt 1 view .LVU351
	.loc 1 54 22 is_stmt 0 view .LVU352
	adrp	x1, .LC16
	add	x1, x1, :lo12:.LC16
	adrp	x0, :got:_ZSt4cerr
	ldr	x0, [x0, :got_lo12:_ZSt4cerr]
	bl	_ZStlsISt11char_traitsIcEERSt13basic_ostreamIcT_ES5_PKc
.LVL147:
.LEHE2:
	.loc 1 55 9 is_stmt 1 view .LVU353
	.loc 1 55 13 is_stmt 0 view .LVU354
	mov	w0, 123
	bl	exit
.LVL148:
.L59:
.LBE1238:
.LBB1239:
.LBB1240:
	.loc 2 795 19 view .LVU355
	mov	x19, x0
.LVL149:
	.loc 2 795 19 view .LVU356
.LBE1240:
.LBI1239:
	.loc 2 794 7 is_stmt 1 view .LVU357
.LBB1245:
	.loc 2 795 19 is_stmt 0 view .LVU358
	add	x0, sp, 48
	bl	_ZNSt7__cxx1112basic_stringIcSt11char_traitsIcESaIcEE10_M_disposeEv
.LVL150:
.LBB1241:
.LBI1241:
	.loc 2 192 14 is_stmt 1 view .LVU359
.LBB1242:
.LBB1243:
.LBI1243:
	.loc 6 174 7 view .LVU360
.LBB1244:
.LBI1244:
	.loc 7 90 7 view .LVU361
	.loc 7 90 7 is_stmt 0 view .LVU362
	mov	x0, x19
.LEHB3:
	bl	_Unwind_Resume
.LVL151:
.L60:
	.loc 7 90 7 view .LVU363
.LBE1244:
.LBE1243:
.LBE1242:
.LBE1241:
.LBE1245:
.LBE1239:
	.loc 1 57 1 view .LVU364
	mov	x19, x0
.LVL152:
	.loc 1 57 1 view .LVU365
	add	x0, sp, 152
	bl	_ZNSt14basic_ofstreamIcSt11char_traitsIcEED1Ev
.LVL153:
	mov	x0, x19
	bl	_Unwind_Resume
.LVL154:
.LEHE3:
	.cfi_endproc
.LFE3693:
	.section	.gcc_except_table,"a",@progbits
.LLSDA3693:
	.byte	0xff
	.byte	0xff
	.byte	0x1
	.uleb128 .LLSDACSE3693-.LLSDACSB3693
.LLSDACSB3693:
	.uleb128 .LEHB0-.LFB3693
	.uleb128 .LEHE0-.LEHB0
	.uleb128 0
	.uleb128 0
	.uleb128 .LEHB1-.LFB3693
	.uleb128 .LEHE1-.LEHB1
	.uleb128 .L59-.LFB3693
	.uleb128 0
	.uleb128 .LEHB2-.LFB3693
	.uleb128 .LEHE2-.LEHB2
	.uleb128 .L60-.LFB3693
	.uleb128 0
	.uleb128 .LEHB3-.LFB3693
	.uleb128 .LEHE3-.LEHB3
	.uleb128 0
	.uleb128 0
.LLSDACSE3693:
	.text
	.size	_ZL9write_logPKc, .-_ZL9write_logPKc
	.section	.text._ZNSt7__cxx1112basic_stringIcSt11char_traitsIcESaIcEE12_M_constructIPKcEEvT_S8_St20forward_iterator_tag,"axG",@progbits,_ZNSt7__cxx1112basic_stringIcSt11char_traitsIcESaIcEE12_M_constructIPKcEEvT_S8_St20forward_iterator_tag,comdat
	.align	2
	.weak	_ZNSt7__cxx1112basic_stringIcSt11char_traitsIcESaIcEE12_M_constructIPKcEEvT_S8_St20forward_iterator_tag
	.type	_ZNSt7__cxx1112basic_stringIcSt11char_traitsIcESaIcEE12_M_constructIPKcEEvT_S8_St20forward_iterator_tag, %function
_ZNSt7__cxx1112basic_stringIcSt11char_traitsIcESaIcEE12_M_constructIPKcEEvT_S8_St20forward_iterator_tag:
.LVL155:
.LFB4135:
	.file 11 "/usr/include/c++/12/bits/basic_string.tcc"
	.loc 11 217 7 is_stmt 1 view -0
	.cfi_startproc
	.loc 11 217 7 is_stmt 0 view .LVU367
	stp	x29, x30, [sp, -64]!
	.cfi_def_cfa_offset 64
	.cfi_offset 29, -64
	.cfi_offset 30, -56
	mov	x29, sp
	stp	x19, x20, [sp, 16]
	str	x21, [sp, 32]
	.cfi_offset 19, -48
	.cfi_offset 20, -40
	.cfi_offset 21, -32
	mov	x19, x0
	mov	x21, x1
.LVL156:
.LBB1246:
.LBI1246:
	.file 12 "/usr/include/c++/12/bits/stl_iterator_base_funcs.h"
	.loc 12 147 5 is_stmt 1 view .LVU368
.LBB1247:
.LBI1247:
	.loc 12 99 5 view .LVU369
.LBB1248:
	.loc 12 105 23 is_stmt 0 view .LVU370
	sub	x20, x2, x1
.LVL157:
	.loc 12 105 23 view .LVU371
.LBE1248:
.LBE1247:
.LBE1246:
	.loc 11 221 12 view .LVU372
	str	x20, [sp, 56]
	.loc 11 223 2 view .LVU373
	cmp	x20, 15
	bhi	.L66
.LVL158:
.L64:
.LBB1249:
.LBI1249:
	.loc 11 235 13 is_stmt 1 view .LVU374
.LBB1250:
.LBB1251:
	.loc 11 235 41 is_stmt 0 view .LVU375
	str	x19, [sp, 48]
.LVL159:
	.loc 11 235 41 view .LVU376
.LBE1251:
.LBE1250:
.LBE1249:
.LBB1252:
.LBI1252:
	.loc 2 233 7 is_stmt 1 view .LVU377
	.loc 2 233 7 is_stmt 0 view .LVU378
.LBE1252:
.LBB1253:
.LBI1253:
	.loc 2 475 7 is_stmt 1 view .LVU379
.LBB1254:
	.loc 2 477 16 is_stmt 0 view .LVU380
	mov	x2, x20
	mov	x1, x21
	ldr	x0, [x19]
	bl	_ZNSt7__cxx1112basic_stringIcSt11char_traitsIcESaIcEE7_S_copyEPcPKcm
.LVL160:
	.loc 2 477 16 view .LVU381
.LBE1254:
.LBE1253:
	.loc 11 245 21 view .LVU382
	str	xzr, [sp, 48]
	.loc 11 247 15 view .LVU383
	ldr	x0, [sp, 56]
.LVL161:
.LBB1255:
.LBI1255:
	.loc 2 265 7 is_stmt 1 view .LVU384
.LBB1256:
.LBB1257:
.LBI1257:
	.loc 2 228 7 view .LVU385
.LBB1258:
	.loc 2 229 26 is_stmt 0 view .LVU386
	str	x0, [x19, 8]
.LVL162:
	.loc 2 229 26 view .LVU387
.LBE1258:
.LBE1257:
.LBB1259:
.LBI1259:
	.loc 2 233 7 is_stmt 1 view .LVU388
.LBB1260:
	.loc 2 234 28 is_stmt 0 view .LVU389
	ldr	x1, [x19]
.LVL163:
	.loc 2 234 28 view .LVU390
.LBE1260:
.LBE1259:
.LBB1261:
.LBI1261:
	.file 13 "/usr/include/c++/12/bits/char_traits.h"
	.loc 13 347 7 is_stmt 1 view .LVU391
.LBB1262:
	.loc 13 354 2 view .LVU392
	.loc 13 354 7 is_stmt 0 view .LVU393
	strb	wzr, [x1, x0]
.LVL164:
	.loc 13 354 7 view .LVU394
.LBE1262:
.LBE1261:
.LBE1256:
.LBE1255:
.LBB1263:
.LBI1263:
	.loc 11 238 4 is_stmt 1 view .LVU395
	.loc 11 238 4 is_stmt 0 view .LVU396
.LBE1263:
	.loc 11 248 7 view .LVU397
	ldp	x19, x20, [sp, 16]
.LVL165:
	.loc 11 248 7 view .LVU398
	ldr	x21, [sp, 32]
.LVL166:
	.loc 11 248 7 view .LVU399
	ldp	x29, x30, [sp], 64
	.cfi_remember_state
	.cfi_restore 30
	.cfi_restore 29
	.cfi_restore 21
	.cfi_restore 19
	.cfi_restore 20
	.cfi_def_cfa_offset 0
	ret
.LVL167:
.L66:
	.cfi_restore_state
	.loc 11 225 13 view .LVU400
	mov	x2, 0
.LVL168:
	.loc 11 225 13 view .LVU401
	add	x1, sp, 56
.LVL169:
	.loc 11 225 13 view .LVU402
	bl	_ZNSt7__cxx1112basic_stringIcSt11char_traitsIcESaIcEE9_M_createERmm
.LVL170:
.LBB1264:
.LBI1264:
	.loc 2 223 7 is_stmt 1 view .LVU403
.LBB1265:
	.loc 2 224 26 is_stmt 0 view .LVU404
	str	x0, [x19]
.LVL171:
	.loc 2 224 26 view .LVU405
.LBE1265:
.LBE1264:
	.loc 11 226 17 view .LVU406
	ldr	x0, [sp, 56]
.LVL172:
.LBB1266:
.LBI1266:
	.loc 2 260 7 is_stmt 1 view .LVU407
.LBB1267:
	.loc 2 261 31 is_stmt 0 view .LVU408
	str	x0, [x19, 16]
	.loc 2 261 45 view .LVU409
	b	.L64
.LBE1267:
.LBE1266:
	.cfi_endproc
.LFE4135:
	.size	_ZNSt7__cxx1112basic_stringIcSt11char_traitsIcESaIcEE12_M_constructIPKcEEvT_S8_St20forward_iterator_tag, .-_ZNSt7__cxx1112basic_stringIcSt11char_traitsIcESaIcEE12_M_constructIPKcEEvT_S8_St20forward_iterator_tag
	.section	.rodata._ZNSt7__cxx1112basic_stringIcSt11char_traitsIcESaIcEEC2IS3_EEPKcRKS3_.str1.8,"aMS",@progbits,1
	.align	3
.LC17:
	.string	"basic_string: construction from null is not valid"
	.section	.text._ZNSt7__cxx1112basic_stringIcSt11char_traitsIcESaIcEEC2IS3_EEPKcRKS3_,"axG",@progbits,_ZNSt7__cxx1112basic_stringIcSt11char_traitsIcESaIcEEC5IS3_EEPKcRKS3_,comdat
	.align	2
	.weak	_ZNSt7__cxx1112basic_stringIcSt11char_traitsIcESaIcEEC2IS3_EEPKcRKS3_
	.type	_ZNSt7__cxx1112basic_stringIcSt11char_traitsIcESaIcEEC2IS3_EEPKcRKS3_, %function
_ZNSt7__cxx1112basic_stringIcSt11char_traitsIcESaIcEEC2IS3_EEPKcRKS3_:
.LVL173:
.LFB4041:
	.loc 2 634 7 is_stmt 1 view -0
	.cfi_startproc
	.loc 2 634 7 is_stmt 0 view .LVU411
	stp	x29, x30, [sp, -32]!
	.cfi_def_cfa_offset 32
	.cfi_offset 29, -32
	.cfi_offset 30, -24
	mov	x29, sp
	stp	x19, x20, [sp, 16]
	.cfi_offset 19, -16
	.cfi_offset 20, -8
	mov	x20, x0
.LVL174:
.LBB1268:
.LBI1268:
	.loc 2 238 7 is_stmt 1 view .LVU412
.LBB1269:
	.loc 2 241 51 is_stmt 0 view .LVU413
	add	x0, x0, 16
.LVL175:
	.loc 2 241 51 view .LVU414
.LBE1269:
.LBE1268:
.LBB1270:
.LBI1270:
	.loc 2 199 2 is_stmt 1 view .LVU415
.LBB1271:
.LBB1272:
.LBI1272:
	.loc 6 159 7 view .LVU416
.LBB1273:
.LBI1273:
	.loc 7 83 7 view .LVU417
	.loc 7 83 7 is_stmt 0 view .LVU418
.LBE1273:
.LBE1272:
	.loc 2 200 25 view .LVU419
	str	x0, [x20]
.LVL176:
	.loc 2 200 25 view .LVU420
.LBE1271:
.LBE1270:
.LBB1274:
	.loc 2 638 2 view .LVU421
	cbz	x1, .L70
	mov	x19, x1
.LVL177:
.LBB1275:
.LBI1275:
	.loc 13 389 7 is_stmt 1 view .LVU422
.LBB1276:
	.loc 13 392 2 view .LVU423
	.loc 13 395 2 view .LVU424
	.loc 13 395 25 is_stmt 0 view .LVU425
	mov	x0, x1
	bl	strlen
.LVL178:
	.loc 13 395 25 view .LVU426
.LBE1276:
.LBE1275:
	.loc 2 642 14 view .LVU427
	mov	w3, 0
	add	x2, x19, x0
.LVL179:
	.loc 2 642 14 view .LVU428
	mov	x1, x19
	mov	x0, x20
	bl	_ZNSt7__cxx1112basic_stringIcSt11char_traitsIcESaIcEE12_M_constructIPKcEEvT_S8_St20forward_iterator_tag
.LVL180:
	.loc 2 642 14 view .LVU429
.LBE1274:
	.loc 2 643 7 view .LVU430
	ldp	x19, x20, [sp, 16]
.LVL181:
	.loc 2 643 7 view .LVU431
	ldp	x29, x30, [sp], 32
	.cfi_remember_state
	.cfi_restore 30
	.cfi_restore 29
	.cfi_restore 19
	.cfi_restore 20
	.cfi_def_cfa_offset 0
	ret
.LVL182:
.L70:
	.cfi_restore_state
.LBB1277:
	.loc 2 639 28 view .LVU432
	adrp	x0, .LC17
	add	x0, x0, :lo12:.LC17
	bl	_ZSt19__throw_logic_errorPKc
.LVL183:
	.loc 2 639 28 view .LVU433
.LBE1277:
	.cfi_endproc
.LFE4041:
	.size	_ZNSt7__cxx1112basic_stringIcSt11char_traitsIcESaIcEEC2IS3_EEPKcRKS3_, .-_ZNSt7__cxx1112basic_stringIcSt11char_traitsIcESaIcEEC2IS3_EEPKcRKS3_
	.weak	_ZNSt7__cxx1112basic_stringIcSt11char_traitsIcESaIcEEC1IS3_EEPKcRKS3_
	.set	_ZNSt7__cxx1112basic_stringIcSt11char_traitsIcESaIcEEC1IS3_EEPKcRKS3_,_ZNSt7__cxx1112basic_stringIcSt11char_traitsIcESaIcEEC2IS3_EEPKcRKS3_
	.section	.rodata.str1.8
	.align	3
.LC18:
	.string	"./program_crash.log"
	.text
	.align	2
	.type	_Z41__static_initialization_and_destruction_0ii, %function
_Z41__static_initialization_and_destruction_0ii:
.LVL184:
.LFB4664:
	.loc 1 188 1 is_stmt 1 view -0
	.cfi_startproc
	.loc 1 188 1 is_stmt 0 view .LVU435
	cmp	w0, 1
	beq	.L77
.LVL185:
.L74:
	.loc 1 188 1 view .LVU436
	ret
.LVL186:
.L77:
	.loc 1 188 1 discriminator 1 view .LVU437
	mov	w0, 65535
.LVL187:
	.loc 1 188 1 discriminator 1 view .LVU438
	cmp	w1, w0
	bne	.L74
	.loc 1 188 1 view .LVU439
	stp	x29, x30, [sp, -64]!
	.cfi_def_cfa_offset 64
	.cfi_offset 29, -64
	.cfi_offset 30, -56
	mov	x29, sp
	stp	x19, x20, [sp, 16]
	str	x21, [sp, 32]
	.cfi_offset 19, -48
	.cfi_offset 20, -40
	.cfi_offset 21, -32
	.file 14 "/usr/include/c++/12/iostream"
	.loc 14 74 25 view .LVU440
	adrp	x19, .LANCHOR0
	add	x19, x19, :lo12:.LANCHOR0
	add	x21, x19, 32
	mov	x0, x21
	bl	_ZNSt8ios_base4InitC1Ev
.LVL188:
	.loc 14 74 25 view .LVU441
	adrp	x20, __dso_handle
	add	x20, x20, :lo12:__dso_handle
	mov	x2, x20
	mov	x1, x21
	adrp	x0, :got:_ZNSt8ios_base4InitD1Ev
	ldr	x0, [x0, :got_lo12:_ZNSt8ios_base4InitD1Ev]
	bl	__cxa_atexit
.LVL189:
.LBB1278:
.LBI1278:
	.loc 6 156 7 is_stmt 1 view .LVU442
.LBB1279:
.LBI1279:
	.loc 7 80 7 view .LVU443
	.loc 7 80 7 is_stmt 0 view .LVU444
.LBE1279:
.LBE1278:
	.loc 1 35 20 view .LVU445
	add	x2, sp, 56
	adrp	x1, .LC18
	add	x1, x1, :lo12:.LC18
	mov	x0, x19
	bl	_ZNSt7__cxx1112basic_stringIcSt11char_traitsIcESaIcEEC1IS3_EEPKcRKS3_
.LVL190:
.LBB1280:
.LBI1280:
	.loc 6 174 7 is_stmt 1 view .LVU446
.LBB1281:
.LBI1281:
	.loc 7 90 7 view .LVU447
	.loc 7 90 7 is_stmt 0 view .LVU448
.LBE1281:
.LBE1280:
	.loc 1 35 20 view .LVU449
	mov	x2, x20
	mov	x1, x19
	adrp	x0, :got:_ZNSt7__cxx1112basic_stringIcSt11char_traitsIcESaIcEED1Ev
	ldr	x0, [x0, :got_lo12:_ZNSt7__cxx1112basic_stringIcSt11char_traitsIcESaIcEED1Ev]
	bl	__cxa_atexit
.LVL191:
	.loc 1 188 1 view .LVU450
	ldp	x19, x20, [sp, 16]
	ldr	x21, [sp, 32]
	ldp	x29, x30, [sp], 64
	.cfi_restore 30
	.cfi_restore 29
	.cfi_restore 21
	.cfi_restore 19
	.cfi_restore 20
	.cfi_def_cfa_offset 0
	ret
	.cfi_endproc
.LFE4664:
	.size	_Z41__static_initialization_and_destruction_0ii, .-_Z41__static_initialization_and_destruction_0ii
	.section	.rodata.str1.8
	.align	3
.LC19:
	.string	"\033[31m"
	.align	3
.LC20:
	.string	"\033[0m"
	.align	3
.LC21:
	.string	"In "
	.align	3
.LC22:
	.string	"() in "
	.align	3
.LC23:
	.string	" line "
	.align	3
.LC24:
	.string	":"
	.text
	.align	2
	.global	_Z8logErrorRKNSt7__cxx1112basic_stringIcSt11char_traitsIcESaIcEEES6_i
	.type	_Z8logErrorRKNSt7__cxx1112basic_stringIcSt11char_traitsIcESaIcEEES6_i, %function
_Z8logErrorRKNSt7__cxx1112basic_stringIcSt11char_traitsIcESaIcEEES6_i:
.LVL192:
.LFB3690:
	.loc 1 27 75 is_stmt 1 view -0
	.cfi_startproc
	.cfi_personality 0x9b,DW.ref.__gxx_personality_v0
	.cfi_lsda 0x1b,.LLSDA3690
	.loc 1 27 75 is_stmt 0 view .LVU452
	stp	x29, x30, [sp, -128]!
	.cfi_def_cfa_offset 128
	.cfi_offset 29, -128
	.cfi_offset 30, -120
	mov	x29, sp
	stp	x19, x20, [sp, 16]
	str	x21, [sp, 32]
	.cfi_offset 19, -112
	.cfi_offset 20, -104
	.cfi_offset 21, -96
	mov	x20, x0
	mov	x19, x1
	mov	w21, w2
	.loc 1 28 5 is_stmt 1 view .LVU453
.LVL193:
.LBB1282:
.LBI1282:
	.loc 6 156 7 view .LVU454
.LBB1283:
.LBI1283:
	.loc 7 80 7 view .LVU455
	.loc 7 80 7 is_stmt 0 view .LVU456
.LBE1283:
.LBE1282:
	.loc 1 28 29 view .LVU457
	add	x2, sp, 112
.LVL194:
	.loc 1 28 29 view .LVU458
	adrp	x1, .LC19
.LVL195:
	.loc 1 28 29 view .LVU459
	add	x1, x1, :lo12:.LC19
	add	x0, sp, 80
.LVL196:
.LEHB4:
	.loc 1 28 29 view .LVU460
	bl	_ZNSt7__cxx1112basic_stringIcSt11char_traitsIcESaIcEEC1IS3_EEPKcRKS3_
.LVL197:
.LEHE4:
.LBB1284:
.LBI1284:
	.loc 6 174 7 is_stmt 1 view .LVU461
.LBB1285:
.LBI1285:
	.loc 7 90 7 view .LVU462
	.loc 7 90 7 is_stmt 0 view .LVU463
.LBE1285:
.LBE1284:
	.loc 1 29 5 is_stmt 1 view .LVU464
.LBB1286:
.LBI1286:
	.loc 6 156 7 view .LVU465
.LBB1287:
.LBI1287:
	.loc 7 80 7 view .LVU466
	.loc 7 80 7 is_stmt 0 view .LVU467
.LBE1287:
.LBE1286:
	.loc 1 29 31 view .LVU468
	add	x2, sp, 120
	adrp	x1, .LC20
	add	x1, x1, :lo12:.LC20
	add	x0, sp, 48
.LEHB5:
	bl	_ZNSt7__cxx1112basic_stringIcSt11char_traitsIcESaIcEEC1IS3_EEPKcRKS3_
.LVL198:
.LEHE5:
.LBB1288:
.LBI1288:
	.loc 6 174 7 is_stmt 1 discriminator 2 view .LVU469
.LBB1289:
.LBI1289:
	.loc 7 90 7 discriminator 2 view .LVU470
	.loc 7 90 7 is_stmt 0 discriminator 2 view .LVU471
.LBE1289:
.LBE1288:
	.loc 1 30 5 is_stmt 1 discriminator 2 view .LVU472
.LBB1290:
.LBI1290:
	.loc 2 3883 5 discriminator 2 view .LVU473
.LBB1291:
.LBB1292:
.LBI1292:
	.loc 2 2567 7 discriminator 2 view .LVU474
.LBB1293:
.LBI1293:
	.loc 2 233 7 discriminator 2 view .LVU475
	.loc 2 233 7 is_stmt 0 discriminator 2 view .LVU476
.LBE1293:
.LBE1292:
.LBB1294:
.LBI1294:
	.loc 2 1063 7 is_stmt 1 discriminator 2 view .LVU477
	.loc 2 1063 7 is_stmt 0 discriminator 2 view .LVU478
.LBE1294:
	.loc 2 3888 30 discriminator 2 view .LVU479
	ldr	x2, [sp, 88]
	ldr	x1, [sp, 80]
	adrp	x0, :got:_ZSt4cerr
	ldr	x0, [x0, :got_lo12:_ZSt4cerr]
.LEHB6:
	bl	_ZSt16__ostream_insertIcSt11char_traitsIcEERSt13basic_ostreamIT_T0_ES6_PKS3_l
.LVL199:
	.loc 2 3888 30 discriminator 2 view .LVU480
.LBE1291:
.LBE1290:
	.loc 1 30 62 discriminator 2 view .LVU481
	adrp	x1, .LC21
	add	x1, x1, :lo12:.LC21
	bl	_ZStlsISt11char_traitsIcEERSt13basic_ostreamIcT_ES5_PKc
.LVL200:
.LBB1295:
.LBI1295:
	.loc 2 3883 5 is_stmt 1 view .LVU482
.LBB1296:
.LBB1297:
.LBI1297:
	.loc 2 2567 7 view .LVU483
.LBB1298:
.LBI1298:
	.loc 2 233 7 view .LVU484
	.loc 2 233 7 is_stmt 0 view .LVU485
.LBE1298:
.LBE1297:
.LBB1299:
.LBI1299:
	.loc 2 1063 7 is_stmt 1 view .LVU486
	.loc 2 1063 7 is_stmt 0 view .LVU487
.LBE1299:
	.loc 2 3888 30 view .LVU488
	ldr	x2, [x20, 8]
	ldr	x1, [x20]
	bl	_ZSt16__ostream_insertIcSt11char_traitsIcEERSt13basic_ostreamIT_T0_ES6_PKS3_l
.LVL201:
	.loc 2 3888 30 view .LVU489
.LBE1296:
.LBE1295:
	.loc 1 30 62 discriminator 2 view .LVU490
	adrp	x1, .LC22
	add	x1, x1, :lo12:.LC22
	bl	_ZStlsISt11char_traitsIcEERSt13basic_ostreamIcT_ES5_PKc
.LVL202:
.LBB1300:
.LBI1300:
	.loc 2 3883 5 is_stmt 1 view .LVU491
.LBB1301:
.LBB1302:
.LBI1302:
	.loc 2 2567 7 view .LVU492
.LBB1303:
.LBI1303:
	.loc 2 233 7 view .LVU493
	.loc 2 233 7 is_stmt 0 view .LVU494
.LBE1303:
.LBE1302:
.LBB1304:
.LBI1304:
	.loc 2 1063 7 is_stmt 1 view .LVU495
	.loc 2 1063 7 is_stmt 0 view .LVU496
.LBE1304:
	.loc 2 3888 30 view .LVU497
	ldr	x2, [x19, 8]
	ldr	x1, [x19]
	bl	_ZSt16__ostream_insertIcSt11char_traitsIcEERSt13basic_ostreamIT_T0_ES6_PKS3_l
.LVL203:
	.loc 2 3888 30 view .LVU498
.LBE1301:
.LBE1300:
	.loc 1 30 62 discriminator 4 view .LVU499
	adrp	x1, .LC23
	add	x1, x1, :lo12:.LC23
	bl	_ZStlsISt11char_traitsIcEERSt13basic_ostreamIcT_ES5_PKc
.LVL204:
	.loc 1 30 89 view .LVU500
	mov	w1, w21
	bl	_ZNSolsEi
.LVL205:
	.loc 1 30 89 discriminator 6 view .LVU501
	adrp	x1, .LC24
	add	x1, x1, :lo12:.LC24
	bl	_ZStlsISt11char_traitsIcEERSt13basic_ostreamIcT_ES5_PKc
.LVL206:
.LBB1305:
.LBI1305:
	.loc 2 3883 5 is_stmt 1 discriminator 7 view .LVU502
.LBB1306:
.LBB1307:
.LBI1307:
	.loc 2 2567 7 discriminator 7 view .LVU503
.LBB1308:
.LBI1308:
	.loc 2 233 7 discriminator 7 view .LVU504
	.loc 2 233 7 is_stmt 0 discriminator 7 view .LVU505
.LBE1308:
.LBE1307:
.LBB1309:
.LBI1309:
	.loc 2 1063 7 is_stmt 1 discriminator 7 view .LVU506
	.loc 2 1063 7 is_stmt 0 discriminator 7 view .LVU507
.LBE1309:
	.loc 2 3888 30 discriminator 7 view .LVU508
	ldr	x2, [sp, 56]
	ldr	x1, [sp, 48]
	bl	_ZSt16__ostream_insertIcSt11char_traitsIcEERSt13basic_ostreamIT_T0_ES6_PKS3_l
.LVL207:
	.loc 2 3888 30 discriminator 7 view .LVU509
.LBE1306:
.LBE1305:
.LBB1310:
.LBI1310:
	.loc 4 108 7 is_stmt 1 discriminator 8 view .LVU510
.LBB1311:
	.loc 4 113 13 is_stmt 0 discriminator 8 view .LVU511
	bl	_ZSt4endlIcSt11char_traitsIcEERSt13basic_ostreamIT_T0_ES6_
.LVL208:
.LEHE6:
	.loc 4 113 13 discriminator 8 view .LVU512
.LBE1311:
.LBE1310:
.LBB1312:
.LBI1312:
	.loc 2 794 7 is_stmt 1 view .LVU513
.LBB1313:
	.loc 2 795 19 is_stmt 0 view .LVU514
	add	x0, sp, 48
.LVL209:
	.loc 2 795 19 view .LVU515
	bl	_ZNSt7__cxx1112basic_stringIcSt11char_traitsIcESaIcEE10_M_disposeEv
.LVL210:
.LBB1314:
.LBI1314:
	.loc 2 192 14 is_stmt 1 view .LVU516
.LBB1315:
.LBB1316:
.LBI1316:
	.loc 6 174 7 view .LVU517
.LBB1317:
.LBI1317:
	.loc 7 90 7 view .LVU518
	.loc 7 90 7 is_stmt 0 view .LVU519
.LBE1317:
.LBE1316:
.LBE1315:
.LBE1314:
.LBE1313:
.LBE1312:
.LBB1318:
.LBI1318:
	.loc 2 794 7 is_stmt 1 view .LVU520
.LBB1319:
	.loc 2 795 19 is_stmt 0 view .LVU521
	add	x0, sp, 80
.LVL211:
	.loc 2 795 19 view .LVU522
	bl	_ZNSt7__cxx1112basic_stringIcSt11char_traitsIcESaIcEE10_M_disposeEv
.LVL212:
.LBB1320:
.LBI1320:
	.loc 2 192 14 is_stmt 1 view .LVU523
.LBB1321:
.LBB1322:
.LBI1322:
	.loc 6 174 7 view .LVU524
.LBB1323:
.LBI1323:
	.loc 7 90 7 view .LVU525
	.loc 7 90 7 is_stmt 0 view .LVU526
.LBE1323:
.LBE1322:
.LBE1321:
.LBE1320:
.LBE1319:
.LBE1318:
	.loc 1 31 1 view .LVU527
	ldp	x19, x20, [sp, 16]
.LVL213:
	.loc 1 31 1 view .LVU528
	ldr	x21, [sp, 32]
.LVL214:
	.loc 1 31 1 view .LVU529
	ldp	x29, x30, [sp], 128
	.cfi_remember_state
	.cfi_restore 30
	.cfi_restore 29
	.cfi_restore 21
	.cfi_restore 19
	.cfi_restore 20
	.cfi_def_cfa_offset 0
	ret
.LVL215:
.L82:
	.cfi_restore_state
.LBB1324:
.LBB1325:
	.loc 2 795 19 view .LVU530
	mov	x19, x0
.LVL216:
	.loc 2 795 19 view .LVU531
.LBE1325:
.LBI1324:
	.loc 2 794 7 is_stmt 1 view .LVU532
.LBB1330:
	.loc 2 795 19 is_stmt 0 view .LVU533
	add	x0, sp, 48
.LVL217:
	.loc 2 795 19 view .LVU534
	bl	_ZNSt7__cxx1112basic_stringIcSt11char_traitsIcESaIcEE10_M_disposeEv
.LVL218:
.LBB1326:
.LBI1326:
	.loc 2 192 14 is_stmt 1 view .LVU535
.LBB1327:
.LBB1328:
.LBI1328:
	.loc 6 174 7 view .LVU536
.LBB1329:
.LBI1329:
	.loc 7 90 7 view .LVU537
.L80:
	.loc 7 90 7 is_stmt 0 view .LVU538
.LBE1329:
.LBE1328:
.LBE1327:
.LBE1326:
.LBE1330:
.LBE1324:
.LBB1331:
.LBI1331:
	.loc 2 794 7 is_stmt 1 view .LVU539
.LBB1332:
	.loc 2 795 19 is_stmt 0 view .LVU540
	add	x0, sp, 80
.LVL219:
	.loc 2 795 19 view .LVU541
	bl	_ZNSt7__cxx1112basic_stringIcSt11char_traitsIcESaIcEE10_M_disposeEv
.LVL220:
.LBB1333:
.LBI1333:
	.loc 2 192 14 is_stmt 1 view .LVU542
.LBB1334:
.LBB1335:
.LBI1335:
	.loc 6 174 7 view .LVU543
.LBB1336:
.LBI1336:
	.loc 7 90 7 view .LVU544
	.loc 7 90 7 is_stmt 0 view .LVU545
	mov	x0, x19
.LEHB7:
	bl	_Unwind_Resume
.LVL221:
.LEHE7:
.L81:
	.loc 7 90 7 view .LVU546
.LBE1336:
.LBE1335:
.LBE1334:
.LBE1333:
	.loc 2 795 19 view .LVU547
	mov	x19, x0
.LVL222:
	.loc 2 795 19 view .LVU548
	b	.L80
.LBE1332:
.LBE1331:
	.cfi_endproc
.LFE3690:
	.section	.gcc_except_table
.LLSDA3690:
	.byte	0xff
	.byte	0xff
	.byte	0x1
	.uleb128 .LLSDACSE3690-.LLSDACSB3690
.LLSDACSB3690:
	.uleb128 .LEHB4-.LFB3690
	.uleb128 .LEHE4-.LEHB4
	.uleb128 0
	.uleb128 0
	.uleb128 .LEHB5-.LFB3690
	.uleb128 .LEHE5-.LEHB5
	.uleb128 .L81-.LFB3690
	.uleb128 0
	.uleb128 .LEHB6-.LFB3690
	.uleb128 .LEHE6-.LEHB6
	.uleb128 .L82-.LFB3690
	.uleb128 0
	.uleb128 .LEHB7-.LFB3690
	.uleb128 .LEHE7-.LEHB7
	.uleb128 0
	.uleb128 0
.LLSDACSE3690:
	.text
	.size	_Z8logErrorRKNSt7__cxx1112basic_stringIcSt11char_traitsIcESaIcEEES6_i, .-_Z8logErrorRKNSt7__cxx1112basic_stringIcSt11char_traitsIcESaIcEEES6_i
	.section	.rodata.str1.8
	.align	3
.LC25:
	.string	"./log.sh"
	.text
	.align	2
	.global	main
	.type	main, %function
main:
.LFB3701:
	.loc 1 181 12 is_stmt 1 view -0
	.cfi_startproc
	.cfi_personality 0x9b,DW.ref.__gxx_personality_v0
	.cfi_lsda 0x1b,.LLSDA3701
	stp	x29, x30, [sp, -112]!
	.cfi_def_cfa_offset 112
	.cfi_offset 29, -112
	.cfi_offset 30, -104
	mov	x29, sp
	str	x19, [sp, 16]
	.cfi_offset 19, -96
	.loc 1 182 5 view .LVU550
	.loc 1 182 20 is_stmt 0 view .LVU551
	bl	_Z15register_signalv
.LVL223:
	.loc 1 183 5 is_stmt 1 view .LVU552
	.loc 1 184 5 view .LVU553
.LBB1337:
.LBI1337:
	.loc 2 515 7 view .LVU554
.LBB1338:
.LBB1339:
.LBI1339:
	.loc 2 238 7 view .LVU555
	.loc 2 238 7 is_stmt 0 view .LVU556
.LBE1339:
.LBB1340:
.LBI1340:
	.loc 6 156 7 is_stmt 1 view .LVU557
.LBB1341:
.LBI1341:
	.loc 7 80 7 view .LVU558
	.loc 7 80 7 is_stmt 0 view .LVU559
.LBE1341:
.LBE1340:
.LBB1342:
.LBI1342:
	.loc 2 203 2 is_stmt 1 view .LVU560
.LBB1343:
.LBB1344:
.LBB1345:
.LBI1345:
	.loc 6 159 7 view .LVU561
.LBB1346:
.LBI1346:
	.loc 7 83 7 view .LVU562
	.loc 7 83 7 is_stmt 0 view .LVU563
.LBE1346:
.LBE1345:
	.loc 2 204 36 view .LVU564
	add	x0, sp, 88
.LVL224:
	.loc 2 204 36 view .LVU565
	str	x0, [sp, 72]
.LVL225:
	.loc 2 204 36 view .LVU566
.LBE1344:
.LBE1343:
.LBE1342:
.LBB1347:
.LBI1347:
	.loc 6 174 7 is_stmt 1 view .LVU567
.LBB1348:
.LBI1348:
	.loc 7 90 7 view .LVU568
	.loc 7 90 7 is_stmt 0 view .LVU569
.LBE1348:
.LBE1347:
.LBB1349:
.LBI1349:
	.loc 2 351 7 is_stmt 1 view .LVU570
	.loc 2 351 7 is_stmt 0 view .LVU571
.LBE1349:
.LBB1350:
.LBI1350:
	.loc 2 265 7 is_stmt 1 view .LVU572
.LBB1351:
.LBI1351:
	.loc 2 228 7 view .LVU573
.LBB1352:
	.loc 2 229 26 is_stmt 0 view .LVU574
	str	xzr, [sp, 80]
.LVL226:
	.loc 2 229 26 view .LVU575
.LBE1352:
.LBE1351:
.LBB1353:
.LBI1353:
	.loc 13 347 7 is_stmt 1 view .LVU576
.LBB1354:
	.loc 13 354 2 view .LVU577
	.loc 13 354 7 is_stmt 0 view .LVU578
	strb	wzr, [sp, 88]
.LVL227:
	.loc 13 354 7 view .LVU579
.LBE1354:
.LBE1353:
.LBE1350:
.LBE1338:
.LBE1337:
	.loc 1 185 5 is_stmt 1 view .LVU580
.LBB1355:
.LBI1355:
	.loc 6 156 7 view .LVU581
.LBB1356:
.LBI1356:
	.loc 7 80 7 view .LVU582
	.loc 7 80 7 is_stmt 0 view .LVU583
.LBE1356:
.LBE1355:
	.loc 1 185 19 view .LVU584
	add	x2, sp, 104
	adrp	x1, .LC25
	add	x1, x1, :lo12:.LC25
	add	x0, sp, 40
.LEHB8:
	bl	_ZNSt7__cxx1112basic_stringIcSt11char_traitsIcESaIcEEC1IS3_EEPKcRKS3_
.LVL228:
.LEHE8:
	.loc 1 185 19 discriminator 2 view .LVU585
	add	x0, sp, 40
.LEHB9:
	bl	_Z14execute_scriptRKNSt7__cxx1112basic_stringIcSt11char_traitsIcESaIcEEE
.LVL229:
.LEHE9:
.LBB1357:
.LBI1357:
	.loc 2 794 7 is_stmt 1 view .LVU586
.LBB1358:
	.loc 2 795 19 is_stmt 0 view .LVU587
	add	x0, sp, 40
.LVL230:
	.loc 2 795 19 view .LVU588
	bl	_ZNSt7__cxx1112basic_stringIcSt11char_traitsIcESaIcEE10_M_disposeEv
.LVL231:
.LBB1359:
.LBI1359:
	.loc 2 192 14 is_stmt 1 view .LVU589
.LBB1360:
.LBB1361:
.LBI1361:
	.loc 6 174 7 view .LVU590
.LBB1362:
.LBI1362:
	.loc 7 90 7 view .LVU591
	.loc 7 90 7 is_stmt 0 view .LVU592
.LBE1362:
.LBE1361:
.LBE1360:
.LBE1359:
.LBE1358:
.LBE1357:
.LBB1363:
.LBI1363:
	.loc 6 174 7 is_stmt 1 view .LVU593
.LBB1364:
.LBI1364:
	.loc 7 90 7 view .LVU594
	.loc 7 90 7 is_stmt 0 view .LVU595
.LBE1364:
.LBE1363:
	.loc 1 186 5 is_stmt 1 view .LVU596
.LBB1365:
.LBI1365:
	.loc 2 2554 7 view .LVU597
.LBB1366:
.LBI1366:
	.loc 2 233 7 view .LVU598
	.loc 2 233 7 is_stmt 0 view .LVU599
.LBE1366:
.LBE1365:
	.loc 1 186 14 view .LVU600
	ldr	x0, [sp, 72]
.LEHB10:
	bl	_ZL9write_logPKc
.LVL232:
.LEHE10:
	b	.L93
.L88:
.LBB1367:
.LBB1368:
	.loc 2 795 19 view .LVU601
	mov	x19, x0
.LVL233:
	.loc 2 795 19 view .LVU602
.LBE1368:
.LBI1367:
	.loc 2 794 7 is_stmt 1 view .LVU603
.LBB1373:
	.loc 2 795 19 is_stmt 0 view .LVU604
	add	x0, sp, 40
.LVL234:
	.loc 2 795 19 view .LVU605
	bl	_ZNSt7__cxx1112basic_stringIcSt11char_traitsIcESaIcEE10_M_disposeEv
.LVL235:
.LBB1369:
.LBI1369:
	.loc 2 192 14 is_stmt 1 view .LVU606
.LBB1370:
.LBB1371:
.LBI1371:
	.loc 6 174 7 view .LVU607
.LBB1372:
.LBI1372:
	.loc 7 90 7 view .LVU608
.L87:
	.loc 7 90 7 is_stmt 0 view .LVU609
.LBE1372:
.LBE1371:
.LBE1370:
.LBE1369:
.LBE1373:
.LBE1367:
.LBB1374:
.LBI1374:
	.loc 2 794 7 is_stmt 1 view .LVU610
.LBB1375:
	.loc 2 795 19 is_stmt 0 view .LVU611
	add	x0, sp, 72
.LVL236:
	.loc 2 795 19 view .LVU612
	bl	_ZNSt7__cxx1112basic_stringIcSt11char_traitsIcESaIcEE10_M_disposeEv
.LVL237:
.LBB1376:
.LBI1376:
	.loc 2 192 14 is_stmt 1 view .LVU613
.LBB1377:
.LBB1378:
.LBI1378:
	.loc 6 174 7 view .LVU614
.LBB1379:
.LBI1379:
	.loc 7 90 7 view .LVU615
	.loc 7 90 7 is_stmt 0 view .LVU616
	mov	x0, x19
.LEHB11:
	bl	_Unwind_Resume
.LVL238:
.LEHE11:
.L89:
.LBE1379:
.LBE1378:
.LBE1377:
.LBE1376:
	.loc 2 795 19 view .LVU617
	mov	x19, x0
	b	.L87
.L93:
.LBE1375:
.LBE1374:
	.loc 1 187 5 is_stmt 1 view .LVU618
.LVL239:
.LBB1380:
.LBI1380:
	.loc 2 794 7 view .LVU619
.LBB1381:
	.loc 2 795 19 is_stmt 0 view .LVU620
	add	x0, sp, 72
.LVL240:
	.loc 2 795 19 view .LVU621
	bl	_ZNSt7__cxx1112basic_stringIcSt11char_traitsIcESaIcEE10_M_disposeEv
.LVL241:
.LBB1382:
.LBI1382:
	.loc 2 192 14 is_stmt 1 view .LVU622
.LBB1383:
.LBB1384:
.LBI1384:
	.loc 6 174 7 view .LVU623
.LBB1385:
.LBI1385:
	.loc 7 90 7 view .LVU624
	.loc 7 90 7 is_stmt 0 view .LVU625
.LBE1385:
.LBE1384:
.LBE1383:
.LBE1382:
.LBE1381:
.LBE1380:
	.loc 1 188 1 view .LVU626
	mov	w0, 0
	ldr	x19, [sp, 16]
	ldp	x29, x30, [sp], 112
	.cfi_restore 30
	.cfi_restore 29
	.cfi_restore 19
	.cfi_def_cfa_offset 0
	ret
	.cfi_endproc
.LFE3701:
	.section	.gcc_except_table
.LLSDA3701:
	.byte	0xff
	.byte	0xff
	.byte	0x1
	.uleb128 .LLSDACSE3701-.LLSDACSB3701
.LLSDACSB3701:
	.uleb128 .LEHB8-.LFB3701
	.uleb128 .LEHE8-.LEHB8
	.uleb128 .L89-.LFB3701
	.uleb128 0
	.uleb128 .LEHB9-.LFB3701
	.uleb128 .LEHE9-.LEHB9
	.uleb128 .L88-.LFB3701
	.uleb128 0
	.uleb128 .LEHB10-.LFB3701
	.uleb128 .LEHE10-.LEHB10
	.uleb128 .L89-.LFB3701
	.uleb128 0
	.uleb128 .LEHB11-.LFB3701
	.uleb128 .LEHE11-.LEHB11
	.uleb128 0
	.uleb128 0
.LLSDACSE3701:
	.text
	.size	main, .-main
	.section	.text._ZNSt8__detaillsIcSt11char_traitsIcERKNSt7__cxx1112basic_stringIcS2_SaIcEEEEERSt13basic_ostreamIT_T0_ESD_RKNS_14_Quoted_stringIT1_SA_EE,"axG",@progbits,_ZNSt8__detaillsIcSt11char_traitsIcERKNSt7__cxx1112basic_stringIcS2_SaIcEEEEERSt13basic_ostreamIT_T0_ESD_RKNS_14_Quoted_stringIT1_SA_EE,comdat
	.align	2
	.weak	_ZNSt8__detaillsIcSt11char_traitsIcERKNSt7__cxx1112basic_stringIcS2_SaIcEEEEERSt13basic_ostreamIT_T0_ESD_RKNS_14_Quoted_stringIT1_SA_EE
	.type	_ZNSt8__detaillsIcSt11char_traitsIcERKNSt7__cxx1112basic_stringIcS2_SaIcEEEEERSt13basic_ostreamIT_T0_ESD_RKNS_14_Quoted_stringIT1_SA_EE, %function
_ZNSt8__detaillsIcSt11char_traitsIcERKNSt7__cxx1112basic_stringIcS2_SaIcEEEEERSt13basic_ostreamIT_T0_ESD_RKNS_14_Quoted_stringIT1_SA_EE:
.LVL242:
.LFB4337:
	.file 15 "/usr/include/c++/12/bits/quoted_string.h"
	.loc 15 117 7 is_stmt 1 view -0
	.cfi_startproc
	.cfi_personality 0x9b,DW.ref.__gxx_personality_v0
	.cfi_lsda 0x1b,.LLSDA4337
	.loc 15 117 7 is_stmt 0 view .LVU628
	stp	x29, x30, [sp, -480]!
	.cfi_def_cfa_offset 480
	.cfi_offset 29, -480
	.cfi_offset 30, -472
	mov	x29, sp
	stp	x19, x20, [sp, 16]
	stp	x21, x22, [sp, 32]
	str	x23, [sp, 48]
	.cfi_offset 19, -464
	.cfi_offset 20, -456
	.cfi_offset 21, -448
	.cfi_offset 22, -440
	.cfi_offset 23, -432
	mov	x23, x0
	mov	x20, x1
	.loc 15 120 44 view .LVU629
	add	x19, sp, 104
	mov	x0, x19
.LVL243:
.LEHB12:
	.loc 15 120 44 view .LVU630
	bl	_ZNSt7__cxx1119basic_ostringstreamIcSt11char_traitsIcESaIcEEC1Ev
.LVL244:
.LEHE12:
	.loc 15 121 9 view .LVU631
	ldrb	w1, [x20, 8]
	mov	x0, x19
.LEHB13:
	bl	_ZStlsISt11char_traitsIcEERSt13basic_ostreamIcT_ES5_c
.LVL245:
.LBB1386:
	.loc 15 122 2 view .LVU632
	ldr	x0, [x20]
.LVL246:
.LBB1387:
.LBI1387:
	.loc 2 956 7 is_stmt 1 view .LVU633
.LBB1388:
.LBB1389:
.LBI1389:
	.loc 2 233 7 view .LVU634
.LBB1390:
	.loc 2 234 28 is_stmt 0 view .LVU635
	ldr	x22, [x0]
.LVL247:
	.loc 2 234 28 view .LVU636
.LBE1390:
.LBE1389:
.LBB1391:
.LBI1391:
	.file 16 "/usr/include/c++/12/bits/stl_iterator.h"
	.loc 16 1072 7 is_stmt 1 view .LVU637
	.loc 16 1072 7 is_stmt 0 view .LVU638
.LBE1391:
.LBE1388:
.LBE1387:
	.loc 15 122 2 view .LVU639
	mov	x2, x22
.LVL248:
.LBB1392:
.LBI1392:
	.loc 2 974 7 is_stmt 1 view .LVU640
.LBB1393:
.LBB1394:
.LBI1394:
	.loc 2 1063 7 view .LVU641
.LBB1395:
	.loc 2 1064 16 is_stmt 0 view .LVU642
	ldr	x0, [x0, 8]
.LVL249:
	.loc 2 1064 16 view .LVU643
.LBE1395:
.LBE1394:
	.loc 2 975 41 view .LVU644
	add	x22, x22, x0
.LVL250:
.LBB1396:
.LBI1396:
	.loc 16 1072 7 is_stmt 1 view .LVU645
	.loc 16 1072 7 is_stmt 0 view .LVU646
.LBE1396:
.LBE1393:
.LBE1392:
	.loc 15 122 2 view .LVU647
	b	.L95
.LVL251:
.L96:
	.loc 15 125 15 view .LVU648
	ldrb	w1, [x20, 9]
	add	x0, sp, 104
	bl	_ZStlsISt11char_traitsIcEERSt13basic_ostreamIcT_ES5_c
.LVL252:
	.loc 15 125 15 view .LVU649
	b	.L97
.L107:
	.loc 15 122 2 is_stmt 1 view .LVU650
.LVL253:
.LBB1397:
.LBI1397:
	.loc 16 1105 7 view .LVU651
.LBB1398:
	.loc 16 1107 2 is_stmt 0 view .LVU652
	add	x2, x21, 1
.LVL254:
.L95:
	.loc 16 1107 2 view .LVU653
.LBE1398:
.LBE1397:
	.loc 15 122 2 is_stmt 1 discriminator 1 view .LVU654
.LBB1399:
.LBI1399:
	.loc 16 1237 5 discriminator 1 view .LVU655
.LBB1400:
	.loc 16 1240 27 is_stmt 0 discriminator 1 view .LVU656
	mov	x21, x2
.LVL255:
	.loc 16 1240 27 discriminator 1 view .LVU657
.LBE1400:
.LBE1399:
	.loc 15 122 2 discriminator 1 view .LVU658
	cmp	x22, x2
	beq	.L106
	.loc 15 122 2 view .LVU659
	ldrb	w19, [x2]
.LVL256:
	.loc 15 124 23 view .LVU660
	ldrb	w1, [x20, 8]
	.loc 15 124 6 view .LVU661
	cmp	w1, w19
	beq	.L96
	.loc 15 124 48 discriminator 1 view .LVU662
	ldrb	w1, [x20, 9]
	.loc 15 124 32 discriminator 1 view .LVU663
	cmp	w1, w19
	beq	.L96
.L97:
	.loc 15 126 13 view .LVU664
	mov	w1, w19
	add	x0, sp, 104
	bl	_ZStlsISt11char_traitsIcEERSt13basic_ostreamIcT_ES5_c
.LVL257:
	.loc 15 126 13 view .LVU665
	b	.L107
.LVL258:
.L106:
	.loc 15 126 13 view .LVU666
.LBE1386:
	.loc 15 128 9 view .LVU667
	ldrb	w1, [x20, 8]
	add	x0, sp, 104
	bl	_ZStlsISt11char_traitsIcEERSt13basic_ostreamIcT_ES5_c
.LVL259:
.LBB1401:
.LBI1401:
	.file 17 "/usr/include/c++/12/sstream"
	.loc 17 917 7 is_stmt 1 view .LVU668
.LBB1402:
	.loc 17 918 33 is_stmt 0 view .LVU669
	add	x8, sp, 72
	add	x0, sp, 112
	bl	_ZNKSt7__cxx1115basic_stringbufIcSt11char_traitsIcESaIcEE3strEv
.LVL260:
.LEHE13:
	.loc 17 918 33 view .LVU670
.LBE1402:
.LBE1401:
.LBB1403:
.LBI1403:
	.loc 2 3883 5 is_stmt 1 view .LVU671
.LBB1404:
.LBB1405:
.LBI1405:
	.loc 2 2567 7 view .LVU672
.LBB1406:
.LBI1406:
	.loc 2 233 7 view .LVU673
	.loc 2 233 7 is_stmt 0 view .LVU674
.LBE1406:
.LBE1405:
.LBB1407:
.LBI1407:
	.loc 2 1063 7 is_stmt 1 view .LVU675
	.loc 2 1063 7 is_stmt 0 view .LVU676
.LBE1407:
	.loc 2 3888 30 view .LVU677
	ldr	x2, [sp, 80]
	ldr	x1, [sp, 72]
	mov	x0, x23
.LEHB14:
	bl	_ZSt16__ostream_insertIcSt11char_traitsIcEERSt13basic_ostreamIT_T0_ES6_PKS3_l
.LVL261:
.LEHE14:
	b	.L108
.L102:
.LBE1404:
.LBE1403:
.LBB1409:
.LBB1410:
	.loc 2 795 19 view .LVU678
	mov	x19, x0
.LVL262:
	.loc 2 795 19 view .LVU679
.LBE1410:
.LBI1409:
	.loc 2 794 7 is_stmt 1 view .LVU680
.LBB1415:
	.loc 2 795 19 is_stmt 0 view .LVU681
	add	x0, sp, 72
.LVL263:
	.loc 2 795 19 view .LVU682
	bl	_ZNSt7__cxx1112basic_stringIcSt11char_traitsIcESaIcEE10_M_disposeEv
.LVL264:
.LBB1411:
.LBI1411:
	.loc 2 192 14 is_stmt 1 view .LVU683
.LBB1412:
.LBB1413:
.LBI1413:
	.loc 6 174 7 view .LVU684
.LBB1414:
.LBI1414:
	.loc 7 90 7 view .LVU685
.L100:
	.loc 7 90 7 is_stmt 0 view .LVU686
.LBE1414:
.LBE1413:
.LBE1412:
.LBE1411:
.LBE1415:
.LBE1409:
	.loc 15 131 7 view .LVU687
	add	x0, sp, 104
	bl	_ZNSt7__cxx1119basic_ostringstreamIcSt11char_traitsIcESaIcEED1Ev
.LVL265:
	mov	x0, x19
.LEHB15:
	bl	_Unwind_Resume
.LVL266:
.LEHE15:
.L101:
	mov	x19, x0
	b	.L100
.LVL267:
.L108:
.LBB1416:
.LBB1408:
	.loc 2 3888 30 view .LVU688
	mov	x19, x0
.LVL268:
	.loc 2 3888 30 view .LVU689
.LBE1408:
.LBE1416:
.LBB1417:
.LBI1417:
	.loc 2 794 7 is_stmt 1 view .LVU690
.LBB1418:
	.loc 2 795 19 is_stmt 0 view .LVU691
	add	x0, sp, 72
.LVL269:
	.loc 2 795 19 view .LVU692
	bl	_ZNSt7__cxx1112basic_stringIcSt11char_traitsIcESaIcEE10_M_disposeEv
.LVL270:
.LBB1419:
.LBI1419:
	.loc 2 192 14 is_stmt 1 view .LVU693
.LBB1420:
.LBB1421:
.LBI1421:
	.loc 6 174 7 view .LVU694
.LBB1422:
.LBI1422:
	.loc 7 90 7 view .LVU695
	.loc 7 90 7 is_stmt 0 view .LVU696
.LBE1422:
.LBE1421:
.LBE1420:
.LBE1419:
.LBE1418:
.LBE1417:
	.loc 15 131 7 view .LVU697
	add	x0, sp, 104
	bl	_ZNSt7__cxx1119basic_ostringstreamIcSt11char_traitsIcESaIcEED1Ev
.LVL271:
	mov	x0, x19
	ldp	x19, x20, [sp, 16]
.LVL272:
	.loc 15 131 7 view .LVU698
	ldp	x21, x22, [sp, 32]
	ldr	x23, [sp, 48]
.LVL273:
	.loc 15 131 7 view .LVU699
	ldp	x29, x30, [sp], 480
	.cfi_restore 30
	.cfi_restore 29
	.cfi_restore 23
	.cfi_restore 21
	.cfi_restore 22
	.cfi_restore 19
	.cfi_restore 20
	.cfi_def_cfa_offset 0
	ret
	.cfi_endproc
.LFE4337:
	.section	.gcc_except_table
.LLSDA4337:
	.byte	0xff
	.byte	0xff
	.byte	0x1
	.uleb128 .LLSDACSE4337-.LLSDACSB4337
.LLSDACSB4337:
	.uleb128 .LEHB12-.LFB4337
	.uleb128 .LEHE12-.LEHB12
	.uleb128 0
	.uleb128 0
	.uleb128 .LEHB13-.LFB4337
	.uleb128 .LEHE13-.LEHB13
	.uleb128 .L101-.LFB4337
	.uleb128 0
	.uleb128 .LEHB14-.LFB4337
	.uleb128 .LEHE14-.LEHB14
	.uleb128 .L102-.LFB4337
	.uleb128 0
	.uleb128 .LEHB15-.LFB4337
	.uleb128 .LEHE15-.LEHB15
	.uleb128 0
	.uleb128 0
.LLSDACSE4337:
	.section	.text._ZNSt8__detaillsIcSt11char_traitsIcERKNSt7__cxx1112basic_stringIcS2_SaIcEEEEERSt13basic_ostreamIT_T0_ESD_RKNS_14_Quoted_stringIT1_SA_EE,"axG",@progbits,_ZNSt8__detaillsIcSt11char_traitsIcERKNSt7__cxx1112basic_stringIcS2_SaIcEEEEERSt13basic_ostreamIT_T0_ESD_RKNS_14_Quoted_stringIT1_SA_EE,comdat
	.size	_ZNSt8__detaillsIcSt11char_traitsIcERKNSt7__cxx1112basic_stringIcS2_SaIcEEEEERSt13basic_ostreamIT_T0_ESD_RKNS_14_Quoted_stringIT1_SA_EE, .-_ZNSt8__detaillsIcSt11char_traitsIcERKNSt7__cxx1112basic_stringIcS2_SaIcEEEEERSt13basic_ostreamIT_T0_ESD_RKNS_14_Quoted_stringIT1_SA_EE
	.section	.text._ZNSt10filesystem7__cxx11lsIcSt11char_traitsIcEEERSt13basic_ostreamIT_T0_ES8_RKNS0_4pathE,"axG",@progbits,_ZNSt10filesystem7__cxx11lsIcSt11char_traitsIcEEERSt13basic_ostreamIT_T0_ES8_RKNS0_4pathE,comdat
	.align	2
	.weak	_ZNSt10filesystem7__cxx11lsIcSt11char_traitsIcEEERSt13basic_ostreamIT_T0_ES8_RKNS0_4pathE
	.type	_ZNSt10filesystem7__cxx11lsIcSt11char_traitsIcEEERSt13basic_ostreamIT_T0_ES8_RKNS0_4pathE, %function
_ZNSt10filesystem7__cxx11lsIcSt11char_traitsIcEEERSt13basic_ostreamIT_T0_ES8_RKNS0_4pathE:
.LVL274:
.LFB4095:
	.file 18 "/usr/include/c++/12/bits/fs_path.h"
	.loc 18 539 7 is_stmt 1 view -0
	.cfi_startproc
	.cfi_personality 0x9b,DW.ref.__gxx_personality_v0
	.cfi_lsda 0x1b,.LLSDA4095
	.loc 18 539 7 is_stmt 0 view .LVU701
	stp	x29, x30, [sp, -96]!
	.cfi_def_cfa_offset 96
	.cfi_offset 29, -96
	.cfi_offset 30, -88
	mov	x29, sp
	stp	x19, x20, [sp, 16]
	.cfi_offset 19, -80
	.cfi_offset 20, -72
	mov	x19, x0
.LVL275:
.LBB1423:
.LBI1423:
	.loc 6 156 7 is_stmt 1 view .LVU702
.LBB1424:
.LBI1424:
	.loc 7 80 7 view .LVU703
	.loc 7 80 7 is_stmt 0 view .LVU704
.LBE1424:
.LBE1423:
.LBB1425:
.LBI1425:
	.loc 18 1136 5 is_stmt 1 view .LVU705
.LBB1426:
.LBB1427:
.LBI1427:
	.loc 2 2554 7 view .LVU706
.LBB1428:
.LBI1428:
	.loc 2 233 7 view .LVU707
	.loc 2 233 7 is_stmt 0 view .LVU708
.LBE1428:
.LBE1427:
.LBB1429:
.LBI1429:
	.loc 2 1070 7 is_stmt 1 view .LVU709
	.loc 2 1070 7 is_stmt 0 view .LVU710
.LBE1429:
	.loc 18 1139 58 view .LVU711
	add	x20, sp, 40
	add	x3, sp, 88
.LVL276:
	.loc 18 1139 58 view .LVU712
	ldr	x2, [x1, 8]
	ldr	x1, [x1]
.LVL277:
	.loc 18 1139 58 view .LVU713
	mov	x0, x20
.LVL278:
.LEHB16:
	.loc 18 1139 58 view .LVU714
	bl	_ZNSt7__cxx1112basic_stringIcSt11char_traitsIcESaIcEEC1EPKcmRKS3_
.LVL279:
.LEHE16:
	.loc 18 1139 58 view .LVU715
.LBE1426:
.LBE1425:
.LBB1430:
.LBI1430:
	.file 19 "/usr/include/c++/12/iomanip"
	.loc 19 470 5 is_stmt 1 view .LVU716
.LBB1431:
.LBB1432:
.LBI1432:
	.loc 15 55 2 view .LVU717
.LBB1433:
.LBB1434:
	.loc 15 56 22 is_stmt 0 view .LVU718
	mov	x0, 0
	mov	x1, 34
	bfi	x0, x1, 0, 8
	.loc 15 56 39 view .LVU719
	mov	x1, 92
	bfi	x0, x1, 8, 8
.LVL280:
	.loc 15 56 39 view .LVU720
.LBE1434:
.LBE1433:
.LBE1432:
.LBE1431:
.LBE1430:
	.loc 18 541 21 view .LVU721
	str	x20, [sp, 72]
	str	x0, [sp, 80]
	.loc 18 541 7 view .LVU722
	add	x1, sp, 72
	mov	x0, x19
.LEHB17:
	bl	_ZNSt8__detaillsIcSt11char_traitsIcERKNSt7__cxx1112basic_stringIcS2_SaIcEEEEERSt13basic_ostreamIT_T0_ESD_RKNS_14_Quoted_stringIT1_SA_EE
.LVL281:
.LEHE17:
	b	.L115
.L111:
.LBB1435:
.LBB1436:
	.loc 2 795 19 view .LVU723
	mov	x19, x0
.LVL282:
	.loc 2 795 19 view .LVU724
.LBE1436:
.LBI1435:
	.loc 2 794 7 is_stmt 1 view .LVU725
.LBB1441:
	.loc 2 795 19 is_stmt 0 view .LVU726
	add	x0, sp, 40
	bl	_ZNSt7__cxx1112basic_stringIcSt11char_traitsIcESaIcEE10_M_disposeEv
.LVL283:
.LBB1437:
.LBI1437:
	.loc 2 192 14 is_stmt 1 view .LVU727
.LBB1438:
.LBB1439:
.LBI1439:
	.loc 6 174 7 view .LVU728
.LBB1440:
.LBI1440:
	.loc 7 90 7 view .LVU729
	.loc 7 90 7 is_stmt 0 view .LVU730
	mov	x0, x19
.LEHB18:
	bl	_Unwind_Resume
.LVL284:
.LEHE18:
.L115:
	.loc 7 90 7 view .LVU731
.LBE1440:
.LBE1439:
.LBE1438:
.LBE1437:
.LBE1441:
.LBE1435:
.LBB1442:
.LBI1442:
	.loc 2 794 7 is_stmt 1 view .LVU732
.LBB1443:
	.loc 2 795 19 is_stmt 0 view .LVU733
	add	x0, sp, 40
	bl	_ZNSt7__cxx1112basic_stringIcSt11char_traitsIcESaIcEE10_M_disposeEv
.LVL285:
.LBB1444:
.LBI1444:
	.loc 2 192 14 is_stmt 1 view .LVU734
.LBB1445:
.LBB1446:
.LBI1446:
	.loc 6 174 7 view .LVU735
.LBB1447:
.LBI1447:
	.loc 7 90 7 view .LVU736
	.loc 7 90 7 is_stmt 0 view .LVU737
.LBE1447:
.LBE1446:
.LBE1445:
.LBE1444:
.LBE1443:
.LBE1442:
.LBB1448:
.LBI1448:
	.loc 6 174 7 is_stmt 1 view .LVU738
.LBB1449:
.LBI1449:
	.loc 7 90 7 view .LVU739
	.loc 7 90 7 is_stmt 0 view .LVU740
.LBE1449:
.LBE1448:
	.loc 18 543 7 view .LVU741
	mov	x0, x19
	ldp	x19, x20, [sp, 16]
.LVL286:
	.loc 18 543 7 view .LVU742
	ldp	x29, x30, [sp], 96
	.cfi_restore 30
	.cfi_restore 29
	.cfi_restore 19
	.cfi_restore 20
	.cfi_def_cfa_offset 0
	ret
	.cfi_endproc
.LFE4095:
	.section	.gcc_except_table
.LLSDA4095:
	.byte	0xff
	.byte	0xff
	.byte	0x1
	.uleb128 .LLSDACSE4095-.LLSDACSB4095
.LLSDACSB4095:
	.uleb128 .LEHB16-.LFB4095
	.uleb128 .LEHE16-.LEHB16
	.uleb128 0
	.uleb128 0
	.uleb128 .LEHB17-.LFB4095
	.uleb128 .LEHE17-.LEHB17
	.uleb128 .L111-.LFB4095
	.uleb128 0
	.uleb128 .LEHB18-.LFB4095
	.uleb128 .LEHE18-.LEHB18
	.uleb128 0
	.uleb128 0
.LLSDACSE4095:
	.section	.text._ZNSt10filesystem7__cxx11lsIcSt11char_traitsIcEEERSt13basic_ostreamIT_T0_ES8_RKNS0_4pathE,"axG",@progbits,_ZNSt10filesystem7__cxx11lsIcSt11char_traitsIcEEERSt13basic_ostreamIT_T0_ES8_RKNS0_4pathE,comdat
	.size	_ZNSt10filesystem7__cxx11lsIcSt11char_traitsIcEEERSt13basic_ostreamIT_T0_ES8_RKNS0_4pathE, .-_ZNSt10filesystem7__cxx11lsIcSt11char_traitsIcEEERSt13basic_ostreamIT_T0_ES8_RKNS0_4pathE
	.section	.rodata.str1.8
	.align	3
.LC26:
	.string	"/proc/self/cmdline"
	.align	3
.LC27:
	.string	"[ERROR] Fatal error ("
	.align	3
.LC28:
	.string	"), the program has been stopped."
	.align	3
.LC29:
	.string	"sighandle"
	.align	3
.LC30:
	.string	"main.cpp"
	.align	3
.LC31:
	.string	"[INFO] Log file path: "
	.align	3
.LC32:
	.string	"/program_crash.log"
	.align	3
.LC33:
	.string	"[INFO] Stack trace:"
	.text
	.align	2
	.type	_ZL9sighandlei, %function
_ZL9sighandlei:
.LVL287:
.LFB3694:
	.loc 1 59 31 is_stmt 1 view -0
	.cfi_startproc
	.cfi_personality 0x9b,DW.ref.__gxx_personality_v0
	.cfi_lsda 0x1b,.LLSDA3694
	.loc 1 59 31 is_stmt 0 view .LVU744
	sub	sp, sp, #1600
	.cfi_def_cfa_offset 1600
	stp	x29, x30, [sp]
	.cfi_offset 29, -1600
	.cfi_offset 30, -1592
	mov	x29, sp
	stp	x19, x20, [sp, 16]
	stp	x21, x22, [sp, 32]
	.cfi_offset 19, -1584
	.cfi_offset 20, -1576
	.cfi_offset 21, -1568
	.cfi_offset 22, -1560
	mov	w19, w0
	.loc 1 60 5 is_stmt 1 view .LVU745
	.loc 1 60 11 is_stmt 0 view .LVU746
	mov	x1, 0
	bl	signal
.LVL288:
	.loc 1 61 5 is_stmt 1 view .LVU747
	.loc 1 61 21 is_stmt 0 view .LVU748
	mov	w1, 524288
	adrp	x0, .LC26
	add	x0, x0, :lo12:.LC26
.LEHB19:
	bl	open
.LVL289:
	mov	w20, w0
.LVL290:
	.loc 1 62 5 is_stmt 1 view .LVU749
	.loc 1 63 5 view .LVU750
	.loc 1 63 51 is_stmt 0 view .LVU751
	mov	x2, 1024
	add	x1, sp, 560
	bl	read
.LVL291:
	.loc 1 64 5 is_stmt 1 view .LVU752
	.loc 1 64 10 is_stmt 0 view .LVU753
	mov	w0, w20
	bl	close
.LVL292:
.LEHE19:
	.loc 1 67 5 is_stmt 1 view .LVU754
	.loc 1 67 68 is_stmt 0 view .LVU755
	add	x20, sp, 56
.LVL293:
	.loc 1 67 68 view .LVU756
	mov	x8, x20
	mov	w0, w19
	bl	_ZNSt7__cxx119to_stringEi
.LVL294:
	.loc 1 67 52 view .LVU757
	add	x8, sp, 88
	mov	x1, x20
	adrp	x0, .LC27
	add	x0, x0, :lo12:.LC27
.LEHB20:
	bl	_ZStplIcSt11char_traitsIcESaIcEENSt7__cxx1112basic_stringIT_T0_T1_EEPKS5_OS8_
.LVL295:
.LEHE20:
.LBB1450:
.LBI1450:
	.loc 2 3553 5 is_stmt 1 discriminator 2 view .LVU758
.LBB1451:
	.loc 2 3555 36 is_stmt 0 discriminator 2 view .LVU759
	adrp	x1, .LC28
	add	x1, x1, :lo12:.LC28
	add	x0, sp, 88
.LVL296:
.LEHB21:
	.loc 2 3555 36 discriminator 2 view .LVU760
	bl	_ZNSt7__cxx1112basic_stringIcSt11char_traitsIcESaIcEE6appendEPKc
.LVL297:
.LEHE21:
	.loc 2 3555 43 discriminator 2 view .LVU761
	mov	x1, x0
	add	x0, sp, 528
	bl	_ZNSt7__cxx1112basic_stringIcSt11char_traitsIcESaIcEEC1EOS4_
.LVL298:
	.loc 2 3555 43 discriminator 2 view .LVU762
.LBE1451:
.LBE1450:
.LBB1452:
.LBI1452:
	.loc 2 794 7 is_stmt 1 discriminator 2 view .LVU763
.LBB1453:
	.loc 2 795 19 is_stmt 0 discriminator 2 view .LVU764
	add	x0, sp, 88
.LVL299:
	.loc 2 795 19 discriminator 2 view .LVU765
	bl	_ZNSt7__cxx1112basic_stringIcSt11char_traitsIcESaIcEE10_M_disposeEv
.LVL300:
.LBB1454:
.LBI1454:
	.loc 2 192 14 is_stmt 1 discriminator 2 view .LVU766
.LBB1455:
.LBB1456:
.LBI1456:
	.loc 6 174 7 discriminator 2 view .LVU767
.LBB1457:
.LBI1457:
	.loc 7 90 7 discriminator 2 view .LVU768
	.loc 7 90 7 is_stmt 0 discriminator 2 view .LVU769
.LBE1457:
.LBE1456:
.LBE1455:
.LBE1454:
.LBE1453:
.LBE1452:
.LBB1458:
.LBI1458:
	.loc 2 794 7 is_stmt 1 discriminator 2 view .LVU770
.LBB1459:
	.loc 2 795 19 is_stmt 0 discriminator 2 view .LVU771
	mov	x0, x20
	bl	_ZNSt7__cxx1112basic_stringIcSt11char_traitsIcESaIcEE10_M_disposeEv
.LVL301:
.LBB1460:
.LBI1460:
	.loc 2 192 14 is_stmt 1 discriminator 2 view .LVU772
.LBB1461:
.LBB1462:
.LBI1462:
	.loc 6 174 7 discriminator 2 view .LVU773
.LBB1463:
.LBI1463:
	.loc 7 90 7 discriminator 2 view .LVU774
	.loc 7 90 7 is_stmt 0 discriminator 2 view .LVU775
.LBE1463:
.LBE1462:
.LBE1461:
.LBE1460:
.LBE1459:
.LBE1458:
	.loc 1 68 5 is_stmt 1 discriminator 2 view .LVU776
.LBB1464:
.LBI1464:
	.loc 2 3883 5 discriminator 2 view .LVU777
.LBB1465:
.LBB1466:
.LBI1466:
	.loc 2 2567 7 discriminator 2 view .LVU778
.LBB1467:
.LBI1467:
	.loc 2 233 7 discriminator 2 view .LVU779
	.loc 2 233 7 is_stmt 0 discriminator 2 view .LVU780
.LBE1467:
.LBE1466:
.LBB1468:
.LBI1468:
	.loc 2 1063 7 is_stmt 1 discriminator 2 view .LVU781
	.loc 2 1063 7 is_stmt 0 discriminator 2 view .LVU782
.LBE1468:
	.loc 2 3888 30 discriminator 2 view .LVU783
	ldr	x2, [sp, 536]
	ldr	x1, [sp, 528]
	adrp	x0, :got:_ZSt4cout
	ldr	x0, [x0, :got_lo12:_ZSt4cout]
.LEHB22:
	bl	_ZSt16__ostream_insertIcSt11char_traitsIcEERSt13basic_ostreamIT_T0_ES6_PKS3_l
.LVL302:
	.loc 2 3888 30 discriminator 2 view .LVU784
.LBE1465:
.LBE1464:
.LBB1469:
.LBI1469:
	.loc 4 108 7 is_stmt 1 view .LVU785
.LBB1470:
	.loc 4 113 13 is_stmt 0 view .LVU786
	bl	_ZSt4endlIcSt11char_traitsIcEERSt13basic_ostreamIT_T0_ES6_
.LVL303:
	.loc 4 113 13 view .LVU787
.LBE1470:
.LBE1469:
	.loc 1 69 5 is_stmt 1 view .LVU788
.LBB1471:
.LBI1471:
	.loc 6 156 7 view .LVU789
.LBB1472:
.LBI1472:
	.loc 7 80 7 view .LVU790
	.loc 7 80 7 is_stmt 0 view .LVU791
.LBE1472:
.LBE1471:
	.loc 1 69 13 view .LVU792
	add	x2, sp, 1584
	adrp	x1, .LC29
	add	x1, x1, :lo12:.LC29
	mov	x0, x20
	bl	_ZNSt7__cxx1112basic_stringIcSt11char_traitsIcESaIcEEC1IS3_EEPKcRKS3_
.LVL304:
.LEHE22:
.LBB1473:
.LBI1473:
	.loc 6 156 7 is_stmt 1 discriminator 2 view .LVU793
.LBB1474:
.LBI1474:
	.loc 7 80 7 discriminator 2 view .LVU794
	.loc 7 80 7 is_stmt 0 discriminator 2 view .LVU795
.LBE1474:
.LBE1473:
	.loc 1 69 13 discriminator 2 view .LVU796
	add	x2, sp, 1592
	adrp	x1, .LC30
	add	x1, x1, :lo12:.LC30
	add	x0, sp, 88
.LEHB23:
	bl	_ZNSt7__cxx1112basic_stringIcSt11char_traitsIcESaIcEEC1IS3_EEPKcRKS3_
.LVL305:
.LEHE23:
	.loc 1 69 13 discriminator 4 view .LVU797
	mov	w2, 69
	add	x1, sp, 88
	mov	x0, x20
.LEHB24:
	bl	_Z8logErrorRKNSt7__cxx1112basic_stringIcSt11char_traitsIcESaIcEEES6_i
.LVL306:
.LEHE24:
.LBB1475:
.LBI1475:
	.loc 2 794 7 is_stmt 1 view .LVU798
.LBB1476:
	.loc 2 795 19 is_stmt 0 view .LVU799
	add	x0, sp, 88
.LVL307:
	.loc 2 795 19 view .LVU800
	bl	_ZNSt7__cxx1112basic_stringIcSt11char_traitsIcESaIcEE10_M_disposeEv
.LVL308:
.LBB1477:
.LBI1477:
	.loc 2 192 14 is_stmt 1 view .LVU801
.LBB1478:
.LBB1479:
.LBI1479:
	.loc 6 174 7 view .LVU802
.LBB1480:
.LBI1480:
	.loc 7 90 7 view .LVU803
	.loc 7 90 7 is_stmt 0 view .LVU804
.LBE1480:
.LBE1479:
.LBE1478:
.LBE1477:
.LBE1476:
.LBE1475:
.LBB1481:
.LBI1481:
	.loc 6 174 7 is_stmt 1 view .LVU805
.LBB1482:
.LBI1482:
	.loc 7 90 7 view .LVU806
	.loc 7 90 7 is_stmt 0 view .LVU807
.LBE1482:
.LBE1481:
.LBB1483:
.LBI1483:
	.loc 2 794 7 is_stmt 1 view .LVU808
.LBB1484:
	.loc 2 795 19 is_stmt 0 view .LVU809
	mov	x0, x20
	bl	_ZNSt7__cxx1112basic_stringIcSt11char_traitsIcESaIcEE10_M_disposeEv
.LVL309:
.LBB1485:
.LBI1485:
	.loc 2 192 14 is_stmt 1 view .LVU810
.LBB1486:
.LBB1487:
.LBI1487:
	.loc 6 174 7 view .LVU811
.LBB1488:
.LBI1488:
	.loc 7 90 7 view .LVU812
	.loc 7 90 7 is_stmt 0 view .LVU813
.LBE1488:
.LBE1487:
.LBE1486:
.LBE1485:
.LBE1484:
.LBE1483:
.LBB1489:
.LBI1489:
	.loc 6 174 7 is_stmt 1 view .LVU814
.LBB1490:
.LBI1490:
	.loc 7 90 7 view .LVU815
	.loc 7 90 7 is_stmt 0 view .LVU816
.LBE1490:
.LBE1489:
	.loc 1 70 5 is_stmt 1 view .LVU817
.LBB1491:
.LBI1491:
	.loc 2 2554 7 view .LVU818
.LBB1492:
.LBI1492:
	.loc 2 233 7 view .LVU819
	.loc 2 233 7 is_stmt 0 view .LVU820
.LBE1492:
.LBE1491:
	.loc 1 70 14 view .LVU821
	ldr	x0, [sp, 528]
.LEHB25:
	bl	_ZL9write_logPKc
.LVL310:
	.loc 1 71 5 is_stmt 1 view .LVU822
	.loc 1 71 81 is_stmt 0 view .LVU823
	adrp	x1, .LC31
	add	x1, x1, :lo12:.LC31
	adrp	x0, :got:_ZSt4cout
	ldr	x0, [x0, :got_lo12:_ZSt4cout]
	bl	_ZStlsISt11char_traitsIcEERSt13basic_ostreamIcT_ES5_PKc
.LVL311:
	mov	x19, x0
.LVL312:
	.loc 1 71 75 view .LVU824
	add	x8, sp, 88
	bl	_ZNSt10filesystem12current_pathB5cxx11Ev
.LVL313:
.LEHE25:
	.loc 1 71 81 discriminator 3 view .LVU825
	add	x1, sp, 88
	mov	x0, x19
.LEHB26:
	bl	_ZNSt10filesystem7__cxx11lsIcSt11char_traitsIcEEERSt13basic_ostreamIT_T0_ES8_RKNS0_4pathE
.LVL314:
	adrp	x1, .LC32
	add	x1, x1, :lo12:.LC32
	bl	_ZStlsISt11char_traitsIcEERSt13basic_ostreamIcT_ES5_PKc
.LVL315:
.LBB1493:
.LBI1493:
	.loc 4 108 7 is_stmt 1 discriminator 5 view .LVU826
.LBB1494:
	.loc 4 113 13 is_stmt 0 discriminator 5 view .LVU827
	bl	_ZSt4endlIcSt11char_traitsIcEERSt13basic_ostreamIT_T0_ES6_
.LVL316:
.LEHE26:
	.loc 4 113 13 discriminator 5 view .LVU828
.LBE1494:
.LBE1493:
.LBB1495:
.LBI1495:
	.loc 18 354 5 is_stmt 1 view .LVU829
.LBB1496:
.LBB1497:
.LBI1497:
	.loc 18 693 7 view .LVU830
.LBB1498:
	add	x0, sp, 120
.LVL317:
	.loc 18 693 7 is_stmt 0 view .LVU831
	bl	_ZNSt10unique_ptrINSt10filesystem7__cxx114path5_List5_ImplENS3_13_Impl_deleterEED1Ev
.LVL318:
	.loc 18 693 7 view .LVU832
.LBE1498:
.LBE1497:
.LBB1499:
.LBI1499:
	.loc 2 794 7 is_stmt 1 view .LVU833
.LBB1500:
	.loc 2 795 19 is_stmt 0 view .LVU834
	add	x0, sp, 88
.LVL319:
	.loc 2 795 19 view .LVU835
	bl	_ZNSt7__cxx1112basic_stringIcSt11char_traitsIcESaIcEE10_M_disposeEv
.LVL320:
.LBB1501:
.LBI1501:
	.loc 2 192 14 is_stmt 1 view .LVU836
.LBB1502:
.LBB1503:
.LBI1503:
	.loc 6 174 7 view .LVU837
.LBB1504:
.LBI1504:
	.loc 7 90 7 view .LVU838
	.loc 7 90 7 is_stmt 0 view .LVU839
.LBE1504:
.LBE1503:
.LBE1502:
.LBE1501:
.LBE1500:
.LBE1499:
.LBE1496:
.LBE1495:
	.loc 1 76 5 is_stmt 1 view .LVU840
	.loc 1 77 5 view .LVU841
	.loc 1 77 25 is_stmt 0 view .LVU842
	mov	w1, 50
	add	x0, sp, 128
.LEHB27:
	bl	backtrace
.LVL321:
	mov	w22, w0
.LVL322:
	.loc 1 78 5 is_stmt 1 view .LVU843
	.loc 1 78 42 is_stmt 0 view .LVU844
	mov	w1, w0
	add	x0, sp, 128
.LVL323:
	.loc 1 78 42 view .LVU845
	bl	backtrace_symbols
.LVL324:
	.loc 1 78 42 view .LVU846
	mov	x21, x0
.LVL325:
	.loc 1 80 5 is_stmt 1 view .LVU847
.LBB1505:
	cbz	x0, .L117
.LBB1506:
	.loc 1 81 5 view .LVU848
	.loc 1 81 18 is_stmt 0 view .LVU849
	adrp	x1, .LC33
	add	x1, x1, :lo12:.LC33
	adrp	x0, :got:_ZSt4cout
	ldr	x0, [x0, :got_lo12:_ZSt4cout]
.LVL326:
	.loc 1 81 18 view .LVU850
	bl	_ZStlsISt11char_traitsIcEERSt13basic_ostreamIcT_ES5_PKc
.LVL327:
.LBB1507:
.LBI1507:
	.loc 4 108 7 is_stmt 1 view .LVU851
.LBB1508:
	.loc 4 113 13 is_stmt 0 view .LVU852
	bl	_ZSt4endlIcSt11char_traitsIcEERSt13basic_ostreamIT_T0_ES6_
.LVL328:
	.loc 4 113 13 view .LVU853
.LBE1508:
.LBE1507:
	.loc 1 82 9 is_stmt 1 view .LVU854
	.loc 1 82 18 is_stmt 0 view .LVU855
	adrp	x0, .LC33
	add	x0, x0, :lo12:.LC33
	bl	_ZL9write_logPKc
.LVL329:
	b	.L135
.LVL330:
.L137:
.LBB1509:
.LBB1510:
.LBI1510:
	.loc 4 108 7 is_stmt 1 view .LVU856
.LBB1511:
	.loc 4 113 13 is_stmt 0 view .LVU857
	bl	_ZSt4endlIcSt11char_traitsIcEERSt13basic_ostreamIT_T0_ES6_
.LVL331:
	.loc 4 113 13 view .LVU858
.LBE1511:
.LBE1510:
	.loc 1 85 13 is_stmt 1 view .LVU859
	.loc 1 85 22 is_stmt 0 view .LVU860
	ldr	x0, [x21, x20, lsl 3]
	bl	_ZL9write_logPKc
.LVL332:
	.loc 1 83 9 is_stmt 1 discriminator 2 view .LVU861
	add	w19, w19, 1
.LVL333:
.L118:
	.loc 1 83 27 discriminator 1 view .LVU862
	cmp	w19, w22
	bge	.L136
	.loc 1 84 13 view .LVU863
	.loc 1 84 37 is_stmt 0 view .LVU864
	sxtw	x20, w19
	.loc 1 84 38 view .LVU865
	ldr	x1, [x21, x20, lsl 3]
	adrp	x0, :got:_ZSt4cout
	ldr	x0, [x0, :got_lo12:_ZSt4cout]
	bl	_ZStlsISt11char_traitsIcEERSt13basic_ostreamIcT_ES5_PKc
.LVL334:
.LEHE27:
	b	.L137
.LVL335:
.L135:
	.loc 1 83 18 view .LVU866
	mov	w19, 0
	b	.L118
.LVL336:
.L136:
	.loc 1 83 18 view .LVU867
.LBE1509:
	.loc 1 87 9 is_stmt 1 view .LVU868
	.loc 1 87 13 is_stmt 0 view .LVU869
	mov	x0, x21
	bl	free
.LVL337:
.L117:
	.loc 1 87 13 view .LVU870
.LBE1506:
.LBE1505:
	.loc 1 92 5 is_stmt 1 view .LVU871
	.loc 1 92 9 is_stmt 0 view .LVU872
	mov	w0, 127
	bl	exit
.LVL338:
.L128:
.LBB1512:
.LBB1513:
	.loc 2 795 19 view .LVU873
	mov	x19, x0
.LVL339:
	.loc 2 795 19 view .LVU874
.LBE1513:
.LBI1512:
	.loc 2 794 7 is_stmt 1 view .LVU875
.LBB1518:
	.loc 2 795 19 is_stmt 0 view .LVU876
	add	x0, sp, 88
.LVL340:
	.loc 2 795 19 view .LVU877
	bl	_ZNSt7__cxx1112basic_stringIcSt11char_traitsIcESaIcEE10_M_disposeEv
.LVL341:
.LBB1514:
.LBI1514:
	.loc 2 192 14 is_stmt 1 view .LVU878
.LBB1515:
.LBB1516:
.LBI1516:
	.loc 6 174 7 view .LVU879
.LBB1517:
.LBI1517:
	.loc 7 90 7 view .LVU880
.L121:
	.loc 7 90 7 is_stmt 0 view .LVU881
.LBE1517:
.LBE1516:
.LBE1515:
.LBE1514:
.LBE1518:
.LBE1512:
.LBB1519:
.LBI1519:
	.loc 2 794 7 is_stmt 1 discriminator 1 view .LVU882
.LBB1520:
	.loc 2 795 19 is_stmt 0 discriminator 1 view .LVU883
	add	x0, sp, 56
	bl	_ZNSt7__cxx1112basic_stringIcSt11char_traitsIcESaIcEE10_M_disposeEv
.LVL342:
.LBB1521:
.LBI1521:
	.loc 2 192 14 is_stmt 1 discriminator 1 view .LVU884
.LBB1522:
.LBB1523:
.LBI1523:
	.loc 6 174 7 discriminator 1 view .LVU885
.LBB1524:
.LBI1524:
	.loc 7 90 7 discriminator 1 view .LVU886
	.loc 7 90 7 is_stmt 0 discriminator 1 view .LVU887
	mov	x0, x19
.LEHB28:
	bl	_Unwind_Resume
.LVL343:
.L127:
	.loc 7 90 7 discriminator 1 view .LVU888
.LBE1524:
.LBE1523:
.LBE1522:
.LBE1521:
	.loc 2 795 19 view .LVU889
	mov	x19, x0
.LVL344:
	.loc 2 795 19 view .LVU890
	b	.L121
.LVL345:
.L131:
	.loc 2 795 19 view .LVU891
.LBE1520:
.LBE1519:
.LBB1525:
.LBB1526:
	mov	x19, x0
.LVL346:
	.loc 2 795 19 view .LVU892
.LBE1526:
.LBI1525:
	.loc 2 794 7 is_stmt 1 view .LVU893
.LBB1531:
	.loc 2 795 19 is_stmt 0 view .LVU894
	add	x0, sp, 88
.LVL347:
	.loc 2 795 19 view .LVU895
	bl	_ZNSt7__cxx1112basic_stringIcSt11char_traitsIcESaIcEE10_M_disposeEv
.LVL348:
.LBB1527:
.LBI1527:
	.loc 2 192 14 is_stmt 1 view .LVU896
.LBB1528:
.LBB1529:
.LBI1529:
	.loc 6 174 7 view .LVU897
.LBB1530:
.LBI1530:
	.loc 7 90 7 view .LVU898
.L123:
	.loc 7 90 7 is_stmt 0 view .LVU899
.LBE1530:
.LBE1529:
.LBE1528:
.LBE1527:
.LBE1531:
.LBE1525:
.LBB1532:
.LBI1532:
	.loc 6 174 7 is_stmt 1 discriminator 3 view .LVU900
.LBB1533:
.LBI1533:
	.loc 7 90 7 discriminator 3 view .LVU901
	.loc 7 90 7 is_stmt 0 discriminator 3 view .LVU902
.LBE1533:
.LBE1532:
.LBB1534:
.LBI1534:
	.loc 2 794 7 is_stmt 1 discriminator 3 view .LVU903
.LBB1535:
	.loc 2 795 19 is_stmt 0 discriminator 3 view .LVU904
	add	x0, sp, 56
	bl	_ZNSt7__cxx1112basic_stringIcSt11char_traitsIcESaIcEE10_M_disposeEv
.LVL349:
.LBB1536:
.LBI1536:
	.loc 2 192 14 is_stmt 1 discriminator 3 view .LVU905
.LBB1537:
.LBB1538:
.LBI1538:
	.loc 6 174 7 discriminator 3 view .LVU906
.LBB1539:
.LBI1539:
	.loc 7 90 7 discriminator 3 view .LVU907
.L124:
	.loc 7 90 7 is_stmt 0 discriminator 3 view .LVU908
.LBE1539:
.LBE1538:
.LBE1537:
.LBE1536:
.LBE1535:
.LBE1534:
.LBB1541:
.LBI1541:
	.loc 2 794 7 is_stmt 1 view .LVU909
.LBB1542:
	.loc 2 795 19 is_stmt 0 view .LVU910
	add	x0, sp, 528
.LVL350:
	.loc 2 795 19 view .LVU911
	bl	_ZNSt7__cxx1112basic_stringIcSt11char_traitsIcESaIcEE10_M_disposeEv
.LVL351:
.LBB1543:
.LBI1543:
	.loc 2 192 14 is_stmt 1 view .LVU912
.LBB1544:
.LBB1545:
.LBI1545:
	.loc 6 174 7 view .LVU913
.LBB1546:
.LBI1546:
	.loc 7 90 7 view .LVU914
	.loc 7 90 7 is_stmt 0 view .LVU915
	mov	x0, x19
	bl	_Unwind_Resume
.LVL352:
.LEHE28:
.L130:
	.loc 7 90 7 view .LVU916
.LBE1546:
.LBE1545:
.LBE1544:
.LBE1543:
.LBE1542:
.LBE1541:
.LBB1548:
.LBB1540:
	.loc 2 795 19 view .LVU917
	mov	x19, x0
.LVL353:
	.loc 2 795 19 view .LVU918
	b	.L123
.L132:
.LBE1540:
.LBE1548:
.LBB1549:
.LBB1550:
.LBB1551:
.LBB1552:
	.loc 18 693 7 view .LVU919
	mov	x19, x0
.LVL354:
	.loc 18 693 7 view .LVU920
.LBE1552:
.LBE1551:
.LBE1550:
.LBI1549:
	.loc 18 354 5 is_stmt 1 view .LVU921
.LBB1561:
.LBB1554:
.LBI1551:
	.loc 18 693 7 view .LVU922
.LBB1553:
	add	x0, sp, 120
.LVL355:
	.loc 18 693 7 is_stmt 0 view .LVU923
	bl	_ZNSt10unique_ptrINSt10filesystem7__cxx114path5_List5_ImplENS3_13_Impl_deleterEED1Ev
.LVL356:
	.loc 18 693 7 view .LVU924
.LBE1553:
.LBE1554:
.LBB1555:
.LBI1555:
	.loc 2 794 7 is_stmt 1 view .LVU925
.LBB1556:
	.loc 2 795 19 is_stmt 0 view .LVU926
	add	x0, sp, 88
.LVL357:
	.loc 2 795 19 view .LVU927
	bl	_ZNSt7__cxx1112basic_stringIcSt11char_traitsIcESaIcEE10_M_disposeEv
.LVL358:
.LBB1557:
.LBI1557:
	.loc 2 192 14 is_stmt 1 view .LVU928
.LBB1558:
.LBB1559:
.LBI1559:
	.loc 6 174 7 view .LVU929
.LBB1560:
.LBI1560:
	.loc 7 90 7 view .LVU930
	.loc 7 90 7 is_stmt 0 view .LVU931
	b	.L124
.L129:
.LBE1560:
.LBE1559:
.LBE1558:
.LBE1557:
.LBE1556:
.LBE1555:
.LBE1561:
.LBE1549:
.LBB1562:
.LBB1547:
	.loc 2 795 19 view .LVU932
	mov	x19, x0
	b	.L124
.LBE1547:
.LBE1562:
	.cfi_endproc
.LFE3694:
	.section	.gcc_except_table
.LLSDA3694:
	.byte	0xff
	.byte	0xff
	.byte	0x1
	.uleb128 .LLSDACSE3694-.LLSDACSB3694
.LLSDACSB3694:
	.uleb128 .LEHB19-.LFB3694
	.uleb128 .LEHE19-.LEHB19
	.uleb128 0
	.uleb128 0
	.uleb128 .LEHB20-.LFB3694
	.uleb128 .LEHE20-.LEHB20
	.uleb128 .L127-.LFB3694
	.uleb128 0
	.uleb128 .LEHB21-.LFB3694
	.uleb128 .LEHE21-.LEHB21
	.uleb128 .L128-.LFB3694
	.uleb128 0
	.uleb128 .LEHB22-.LFB3694
	.uleb128 .LEHE22-.LEHB22
	.uleb128 .L129-.LFB3694
	.uleb128 0
	.uleb128 .LEHB23-.LFB3694
	.uleb128 .LEHE23-.LEHB23
	.uleb128 .L130-.LFB3694
	.uleb128 0
	.uleb128 .LEHB24-.LFB3694
	.uleb128 .LEHE24-.LEHB24
	.uleb128 .L131-.LFB3694
	.uleb128 0
	.uleb128 .LEHB25-.LFB3694
	.uleb128 .LEHE25-.LEHB25
	.uleb128 .L129-.LFB3694
	.uleb128 0
	.uleb128 .LEHB26-.LFB3694
	.uleb128 .LEHE26-.LEHB26
	.uleb128 .L132-.LFB3694
	.uleb128 0
	.uleb128 .LEHB27-.LFB3694
	.uleb128 .LEHE27-.LEHB27
	.uleb128 .L129-.LFB3694
	.uleb128 0
	.uleb128 .LEHB28-.LFB3694
	.uleb128 .LEHE28-.LEHB28
	.uleb128 0
	.uleb128 0
.LLSDACSE3694:
	.text
	.size	_ZL9sighandlei, .-_ZL9sighandlei
	.align	2
	.type	_GLOBAL__sub_I__Z8logErrorRKNSt7__cxx1112basic_stringIcSt11char_traitsIcESaIcEEES6_i, %function
_GLOBAL__sub_I__Z8logErrorRKNSt7__cxx1112basic_stringIcSt11char_traitsIcESaIcEEES6_i:
.LFB4665:
	.loc 1 188 1 is_stmt 1 view -0
	.cfi_startproc
	stp	x29, x30, [sp, -16]!
	.cfi_def_cfa_offset 16
	.cfi_offset 29, -16
	.cfi_offset 30, -8
	mov	x29, sp
	.loc 1 188 1 is_stmt 0 view .LVU934
	mov	w1, 65535
	mov	w0, 1
	bl	_Z41__static_initialization_and_destruction_0ii
.LVL359:
	ldp	x29, x30, [sp], 16
	.cfi_restore 30
	.cfi_restore 29
	.cfi_def_cfa_offset 0
	ret
	.cfi_endproc
.LFE4665:
	.size	_GLOBAL__sub_I__Z8logErrorRKNSt7__cxx1112basic_stringIcSt11char_traitsIcESaIcEEES6_i, .-_GLOBAL__sub_I__Z8logErrorRKNSt7__cxx1112basic_stringIcSt11char_traitsIcESaIcEEES6_i
	.section	.init_array,"aw"
	.align	3
	.xword	_GLOBAL__sub_I__Z8logErrorRKNSt7__cxx1112basic_stringIcSt11char_traitsIcESaIcEEES6_i
	.weak	_ZZNSt8__detail18__to_chars_10_implIjEEvPcjT_E8__digits
	.section	.rodata._ZZNSt8__detail18__to_chars_10_implIjEEvPcjT_E8__digits,"aG",@progbits,_ZZNSt8__detail18__to_chars_10_implIjEEvPcjT_E8__digits,comdat
	.align	3
	.type	_ZZNSt8__detail18__to_chars_10_implIjEEvPcjT_E8__digits, %gnu_unique_object
	.size	_ZZNSt8__detail18__to_chars_10_implIjEEvPcjT_E8__digits, 201
_ZZNSt8__detail18__to_chars_10_implIjEEvPcjT_E8__digits:
	.string	"00010203040506070809101112131415161718192021222324252627282930313233343536373839404142434445464748495051525354555657585960616263646566676869707172737475767778798081828384858687888990919293949596979899"
	.bss
	.align	3
	.set	.LANCHOR0,. + 0
	.type	_ZL8log_path, %object
	.size	_ZL8log_path, 32
_ZL8log_path:
	.zero	32
	.type	_ZStL8__ioinit, %object
	.size	_ZStL8__ioinit, 1
_ZStL8__ioinit:
	.zero	1
	.text
.Letext0:
	.file 20 "/usr/lib/gcc/aarch64-linux-gnu/12/include/stddef.h"
	.file 21 "/usr/lib/gcc/aarch64-linux-gnu/12/include/stdarg.h"
	.file 22 "/usr/include/aarch64-linux-gnu/bits/types/wint_t.h"
	.file 23 "/usr/include/aarch64-linux-gnu/bits/types/__mbstate_t.h"
	.file 24 "/usr/include/aarch64-linux-gnu/bits/types/mbstate_t.h"
	.file 25 "/usr/include/aarch64-linux-gnu/bits/types/__FILE.h"
	.file 26 "/usr/include/aarch64-linux-gnu/bits/types/struct_FILE.h"
	.file 27 "/usr/include/aarch64-linux-gnu/bits/types/FILE.h"
	.file 28 "/usr/include/c++/12/cwchar"
	.file 29 "/usr/include/aarch64-linux-gnu/c++/12/bits/c++config.h"
	.file 30 "/usr/include/c++/12/type_traits"
	.file 31 "/usr/include/c++/12/bits/exception_ptr.h"
	.file 32 "/usr/include/c++/12/bits/postypes.h"
	.file 33 "/usr/include/c++/12/cstdint"
	.file 34 "/usr/include/c++/12/clocale"
	.file 35 "/usr/include/c++/12/bits/stl_iterator_base_types.h"
	.file 36 "/usr/include/c++/12/debug/debug.h"
	.file 37 "/usr/include/c++/12/string_view"
	.file 38 "/usr/include/c++/12/cstdlib"
	.file 39 "/usr/include/c++/12/cstdio"
	.file 40 "/usr/include/c++/12/bits/alloc_traits.h"
	.file 41 "/usr/include/c++/12/bits/sstream.tcc"
	.file 42 "/usr/include/c++/12/initializer_list"
	.file 43 "/usr/include/c++/12/bits/stringfwd.h"
	.file 44 "/usr/include/c++/12/bits/locale_classes.h"
	.file 45 "/usr/include/c++/12/bits/ios_base.h"
	.file 46 "/usr/include/c++/12/cwctype"
	.file 47 "/usr/include/c++/12/bits/ostream.tcc"
	.file 48 "/usr/include/c++/12/streambuf"
	.file 49 "/usr/include/c++/12/bits/streambuf.tcc"
	.file 50 "/usr/include/c++/12/bits/locale_facets.h"
	.file 51 "/usr/include/c++/12/iosfwd"
	.file 52 "/usr/include/aarch64-linux-gnu/c++/12/bits/basic_file.h"
	.file 53 "/usr/include/aarch64-linux-gnu/c++/12/bits/c++io.h"
	.file 54 "/usr/include/c++/12/bits/uses_allocator.h"
	.file 55 "/usr/include/c++/12/bits/shared_ptr_base.h"
	.file 56 "/usr/include/c++/12/csignal"
	.file 57 "/usr/include/c++/12/ctime"
	.file 58 "/usr/include/c++/12/bits/chrono.h"
	.file 59 "/usr/include/c++/12/system_error"
	.file 60 "/usr/include/c++/12/bits/fs_fwd.h"
	.file 61 "/usr/include/c++/12/bits/fs_ops.h"
	.file 62 "/usr/include/c++/12/bits/stl_pair.h"
	.file 63 "/usr/include/c++/12/bits/ptr_traits.h"
	.file 64 "/usr/include/c++/12/bits/utility.h"
	.file 65 "/usr/include/c++/12/bits/fstream.tcc"
	.file 66 "/usr/include/c++/12/bits/basic_ios.tcc"
	.file 67 "/usr/include/c++/12/bits/basic_ios.h"
	.file 68 "/usr/include/c++/12/bits/functexcept.h"
	.file 69 "/usr/include/c++/12/bits/ostream_insert.h"
	.file 70 "/usr/include/wchar.h"
	.file 71 "/usr/include/aarch64-linux-gnu/bits/types/struct_tm.h"
	.file 72 "/usr/include/c++/12/bits/predefined_ops.h"
	.file 73 "/usr/include/c++/12/ext/alloc_traits.h"
	.file 74 "/usr/include/c++/12/ext/concurrence.h"
	.file 75 "/usr/include/aarch64-linux-gnu/bits/types.h"
	.file 76 "/usr/include/aarch64-linux-gnu/bits/stdint-intn.h"
	.file 77 "/usr/include/aarch64-linux-gnu/bits/stdint-uintn.h"
	.file 78 "/usr/include/stdint.h"
	.file 79 "/usr/include/locale.h"
	.file 80 "/usr/include/aarch64-linux-gnu/bits/types/time_t.h"
	.file 81 "/usr/include/aarch64-linux-gnu/bits/types/struct_timespec.h"
	.file 82 "/usr/include/sched.h"
	.file 83 "/usr/include/aarch64-linux-gnu/bits/types/clock_t.h"
	.file 84 "/usr/include/aarch64-linux-gnu/bits/thread-shared-types.h"
	.file 85 "/usr/include/aarch64-linux-gnu/bits/struct_mutex.h"
	.file 86 "/usr/include/aarch64-linux-gnu/bits/pthreadtypes.h"
	.file 87 "/usr/include/aarch64-linux-gnu/c++/12/bits/gthr-default.h"
	.file 88 "/usr/include/aarch64-linux-gnu/c++/12/bits/atomic_word.h"
	.file 89 "/usr/include/stdlib.h"
	.file 90 "/usr/include/aarch64-linux-gnu/sys/types.h"
	.file 91 "/usr/include/aarch64-linux-gnu/bits/stdlib-float.h"
	.file 92 "/usr/include/aarch64-linux-gnu/bits/stdlib-bsearch.h"
	.file 93 "/usr/include/aarch64-linux-gnu/bits/types/__fpos_t.h"
	.file 94 "/usr/include/stdio.h"
	.file 95 "/usr/include/aarch64-linux-gnu/bits/stdio.h"
	.file 96 "/usr/include/aarch64-linux-gnu/bits/wctype-wchar.h"
	.file 97 "/usr/include/wctype.h"
	.file 98 "/usr/include/c++/12/pstl/execution_defs.h"
	.file 99 "/usr/include/aarch64-linux-gnu/bits/types/sig_atomic_t.h"
	.file 100 "/usr/include/signal.h"
	.file 101 "/usr/include/time.h"
	.file 102 "/usr/include/unistd.h"
	.file 103 "/usr/include/aarch64-linux-gnu/sys/wait.h"
	.file 104 "/usr/include/execinfo.h"
	.file 105 "/usr/include/fcntl.h"
	.file 106 "/usr/include/c++/12/new"
	.file 107 "<built-in>"